ARM GAS  C:\Users\Lenovo\AppData\Local\Temp\ccFjE1Y8.s 			page 1


   1              		.syntax unified
   2              		.cpu cortex-m3
   3              		.fpu softvfp
   4              		.eabi_attribute 20, 1
   5              		.eabi_attribute 21, 1
   6              		.eabi_attribute 23, 3
   7              		.eabi_attribute 24, 1
   8              		.eabi_attribute 25, 1
   9              		.eabi_attribute 26, 1
  10              		.eabi_attribute 30, 1
  11              		.eabi_attribute 34, 1
  12              		.eabi_attribute 18, 4
  13              		.thumb
  14              		.syntax unified
  15              		.file	"printer.c"
  16              		.text
  17              	.Ltext0:
  18              		.cfi_sections	.debug_frame
  19              		.section	.text.PrintReceipt,"ax",%progbits
  20              		.align	2
  21              		.global	PrintReceipt
  22              		.thumb
  23              		.thumb_func
  24              		.type	PrintReceipt, %function
  25              	PrintReceipt:
  26              	.LFB64:
  27              		.file 1 "printer.c"
   1:printer.c     **** /* ========================================
   2:printer.c     ****  *
   3:printer.c     ****  * Copyright YOUR COMPANY, THE YEAR
   4:printer.c     ****  * All Rights Reserved
   5:printer.c     ****  * UNPUBLISHED, LICENSED SOFTWARE.
   6:printer.c     ****  *
   7:printer.c     ****  * CONFIDENTIAL AND PROPRIETARY INFORMATION
   8:printer.c     ****  * WHICH IS THE PROPERTY OF your company.
   9:printer.c     ****  *
  10:printer.c     ****  * ========================================
  11:printer.c     **** */
  12:printer.c     **** 
  13:printer.c     **** #include <project.h>
  14:printer.c     **** #include <GVar.h>
  15:printer.c     **** #include <stdio.h>
  16:printer.c     **** #include <stdlib.h>
  17:printer.c     **** #include <string.h>
  18:printer.c     **** 
  19:printer.c     **** 
  20:printer.c     **** uint8 LINE_FEED = 0x0A;
  21:printer.c     **** char VolSimbol[1] = "G";
  22:printer.c     **** 
  23:printer.c     **** 
  24:printer.c     **** 
  25:printer.c     **** /***********  Temporal messages ******************/
  26:printer.c     **** uint8 msn_EDS[24]       = "   LADRILLERA SANTAFE   ";
  27:printer.c     **** //uint8 msn_EDS2[24]      = "   IMPRESORA DE PRUEBA  ";
  28:printer.c     **** uint8 msn_EDS3[24]      = "     Nit 860.000.762    ";
  29:printer.c     **** //uint8 msn_EDS4[24]      = "      Tel: 555 5555     ";
  30:printer.c     **** uint8 msn_EDS5[24]      = "    AV CRA 9 #74 - 08   ";
ARM GAS  C:\Users\Lenovo\AppData\Local\Temp\ccFjE1Y8.s 			page 2


  31:printer.c     **** uint8 msn_EDS6[24]      = "       BOGOTA D.C.      ";
  32:printer.c     **** uint8 msn_footer[24]    = "  GRACIAS POR SU COMPRA ";
  33:printer.c     **** uint8 msn_footer2[24]   = "      VUELVA PRONTO     ";
  34:printer.c     **** uint8 msn_footer3[24]   = "Firma:                  ";
  35:printer.c     **** uint8 msn_footer4[24]   = "________________________";
  36:printer.c     **** uint8 msn_copy[24]      = "         COPIA          ";
  37:printer.c     **** uint8 msn_diesel[9]     = "Diesel   ";
  38:printer.c     **** uint8 msn_gasoline[9]   = "Corriente";
  39:printer.c     **** 
  40:printer.c     **** /*********** informative messages ****************/
  41:printer.c     **** 
  42:printer.c     **** uint8 msn_fecha[13]       = "Fecha      : ";
  43:printer.c     **** uint8 msn_hora[13]        = "Hora       : ";
  44:printer.c     **** uint8 msn_placa[13]       = "Placa      : ";
  45:printer.c     **** uint8 PRN_MILLEAGE[13]    = "Kilometraje: ";
  46:printer.c     **** uint8 PRN_TRANSTYPE[13]   = "Tipo       : ";
  47:printer.c     **** uint8 msn_pos[13]         = "Posicion   : ";
  48:printer.c     **** uint8 msn_product[13]     = "Producto   : ";
  49:printer.c     **** uint8 msn_ppu[13]         = "Ppu        : ";
  50:printer.c     **** uint8 msn_vol[13]         = "Volumen    : ";
  51:printer.c     **** uint8 msn_voltot[13]      = "Tot.Vol    : ";
  52:printer.c     **** uint8 msn_din[13]         = "Importe    : ";
  53:printer.c     **** uint8 msn_cierre[13]      = "Cierre No  : ";
  54:printer.c     **** uint8 msn_venta[13]       = "Venta No   : ";
  55:printer.c     **** uint8 msn_numero[13]      = "Consecutivo: ";
  56:printer.c     **** uint8 PRN_BALANCE[13]     = "Saldo      : ";
  57:printer.c     **** uint8 PRN_COMPANY[13]     = "Empresa    : ";
  58:printer.c     **** uint8 PRN_ACCOUNT[13]     = "Cuenta     : ";
  59:printer.c     **** uint8 PRN_SERIAL[13]      = "Serial     : ";
  60:printer.c     **** uint8 PRN_ACCOUNTTYPE[13] = "Tipo Cuenta: ";
  61:printer.c     **** uint8 PRN_VISITSDAY[13]   = "Visitas Dia: ";
  62:printer.c     **** uint8 PRN_VISITSWEEK[13]  = "Visitas Sem: ";
  63:printer.c     **** uint8 PRN_VISITSMONTH[13] = "Visitas Mes: ";
  64:printer.c     **** uint8 PRN_VOLUMEDAY[13]   = "Volumen Dia: ";
  65:printer.c     **** uint8 PRN_VOLUMEWEEK[13]  = "Volumen Sem: ";
  66:printer.c     **** uint8 PRN_VOLUMEMONTH[13] = "Volumen Mes: ";
  67:printer.c     **** uint8 PRN_MONEYDAY[13]    = "Dinero Dia : ";
  68:printer.c     **** uint8 PRN_MONEYWEEK[13]   = "Dinero Sem : ";
  69:printer.c     **** uint8 PRN_MONEYMONTH[13]  = "Dinero Mes : ";
  70:printer.c     **** uint8 PRN_PRESET[13]      = "Valor Prog.: ";
  71:printer.c     **** uint8 PRN_SIGNATURE[13]   = "Firma      : ";
  72:printer.c     **** uint8 PRN_ID[13]          = "Cedula     : ";
  73:printer.c     **** uint8 PRN_CURRENCY[1]     = "$";
  74:printer.c     **** uint8 msn_lecact[16]      ="Volumen actual: ";
  75:printer.c     **** uint8 msn_lecaan[16]      ="Vol. anterior:  ";
  76:printer.c     **** uint8 msn_dif[18]         ="Vol. dispensado:  ";
  77:printer.c     **** uint8 SEPARATOR[32]       = "********************************";
  78:printer.c     **** uint8 ASK_TIME[]={0x5A, 0xA5, 0x03, 0x81, 0x20, 0x07};
  79:printer.c     **** 
  80:printer.c     **** void PrintReceipt(uint8 address){
  28              		.loc 1 80 0
  29              		.cfi_startproc
  30              		@ args = 0, pretend = 0, frame = 0
  31              		@ frame_needed = 0, uses_anonymous_args = 0
  32              	.LVL0:
  33 0000 70B5     		push	{r4, r5, r6, lr}
  34              		.cfi_def_cfa_offset 16
ARM GAS  C:\Users\Lenovo\AppData\Local\Temp\ccFjE1Y8.s 			page 3


  35              		.cfi_offset 4, -16
  36              		.cfi_offset 5, -12
  37              		.cfi_offset 6, -8
  38              		.cfi_offset 14, -4
  39 0002 0546     		mov	r5, r0
  40              	.LVL1:
  81:printer.c     ****     int8 screen_size;  
  82:printer.c     ****     uint32 calcVol;
  83:printer.c     ****     screen_size = 0;
  84:printer.c     ****     sale_number[5]=(int_salenumber/10000)+48;
  41              		.loc 1 84 0
  42 0004 BC4B     		ldr	r3, .L81
  43 0006 1B78     		ldrb	r3, [r3]	@ zero_extendqisi2
  44 0008 BC48     		ldr	r0, .L81+4
  45              	.LVL2:
  46 000a 3022     		movs	r2, #48
  47 000c 4271     		strb	r2, [r0, #5]
  85:printer.c     **** 	sale_number[4]=((int_salenumber%10000)/1000)+48;
  48              		.loc 1 85 0
  49 000e 0022     		movs	r2, #0
  50 0010 02F13001 		add	r1, r2, #48
  51 0014 0171     		strb	r1, [r0, #4]
  86:printer.c     **** 	sale_number[3]=(((int_salenumber%10000)%1000)/100)+48;
  52              		.loc 1 86 0
  53 0016 1A46     		mov	r2, r3
  54 0018 B94B     		ldr	r3, .L81+8
  55 001a 83FB0213 		smull	r1, r3, r3, r2
  56 001e 5B11     		asrs	r3, r3, #5
  57 0020 03F13001 		add	r1, r3, #48
  58 0024 C170     		strb	r1, [r0, #3]
  87:printer.c     **** 	sale_number[2]=((((int_salenumber%10000)%1000)%100)/10)+48;	
  59              		.loc 1 87 0
  60 0026 6421     		movs	r1, #100
  61 0028 01FB1321 		mls	r1, r1, r3, r2
  62 002c B54B     		ldr	r3, .L81+12
  63 002e 83FB0132 		smull	r3, r2, r3, r1
  64 0032 CB17     		asrs	r3, r1, #31
  65 0034 C3EBA203 		rsb	r3, r3, r2, asr #2
  66 0038 03F13002 		add	r2, r3, #48
  67 003c 8270     		strb	r2, [r0, #2]
  88:printer.c     **** 	sale_number[1]=((((int_salenumber%10000)%1000)%100)%10)+48;
  68              		.loc 1 88 0
  69 003e 03EB8303 		add	r3, r3, r3, lsl #2
  70 0042 5A00     		lsls	r2, r3, #1
  71 0044 8A1A     		subs	r2, r1, r2
  72 0046 3032     		adds	r2, r2, #48
  73 0048 4270     		strb	r2, [r0, #1]
  89:printer.c     ****     if(PrintVol == 0){
  74              		.loc 1 89 0
  75 004a AF4B     		ldr	r3, .L81+16
  76 004c 1B78     		ldrb	r3, [r3]	@ zero_extendqisi2
  77 004e 002B     		cmp	r3, #0
  78 0050 35D1     		bne	.L2
  90:printer.c     ****         calcVol = filteredCount/divider;    
  79              		.loc 1 90 0
  80 0052 AE4B     		ldr	r3, .L81+20
  81 0054 1B68     		ldr	r3, [r3]
ARM GAS  C:\Users\Lenovo\AppData\Local\Temp\ccFjE1Y8.s 			page 4


  82 0056 AE4A     		ldr	r2, .L81+24
  83 0058 1278     		ldrb	r2, [r2]	@ zero_extendqisi2
  84 005a B3FBF2F2 		udiv	r2, r3, r2
  85              	.LVL3:
  91:printer.c     ****         charVolume[5]=(calcVol/10000)+48;
  86              		.loc 1 91 0
  87 005e AD4B     		ldr	r3, .L81+28
  88 0060 A3FB0213 		umull	r1, r3, r3, r2
  89 0064 5B0B     		lsrs	r3, r3, #13
  90 0066 AC49     		ldr	r1, .L81+32
  91 0068 03F13000 		add	r0, r3, #48
  92 006c 4881     		strh	r0, [r1, #10]	@ movhi
  92:printer.c     **** 	    charVolume[4]=((calcVol%10000)/1000)+48;
  93              		.loc 1 92 0
  94 006e 42F21070 		movw	r0, #10000
  95 0072 00FB1320 		mls	r0, r0, r3, r2
  96 0076 A94B     		ldr	r3, .L81+36
  97 0078 A3FB0023 		umull	r2, r3, r3, r0
  98              	.LVL4:
  99 007c 9B09     		lsrs	r3, r3, #6
 100 007e 03F13002 		add	r2, r3, #48
 101 0082 0A81     		strh	r2, [r1, #8]	@ movhi
  93:printer.c     **** 	    charVolume[3]=(((calcVol%10000)%1000)/100)+48;
 102              		.loc 1 93 0
 103 0084 4FF47A72 		mov	r2, #1000
 104 0088 02FB1302 		mls	r2, r2, r3, r0
 105 008c 9C4B     		ldr	r3, .L81+8
 106 008e A3FB0203 		umull	r0, r3, r3, r2
 107 0092 5B09     		lsrs	r3, r3, #5
 108 0094 03F13000 		add	r0, r3, #48
 109 0098 C880     		strh	r0, [r1, #6]	@ movhi
  94:printer.c     **** 	    charVolume[2]=((((calcVol%10000)%1000)%100)/10)+48;	
 110              		.loc 1 94 0
 111 009a 6420     		movs	r0, #100
 112 009c 00FB1320 		mls	r0, r0, r3, r2
 113 00a0 9F4B     		ldr	r3, .L81+40
 114 00a2 A3FB0023 		umull	r2, r3, r3, r0
 115 00a6 DB08     		lsrs	r3, r3, #3
 116 00a8 03F13002 		add	r2, r3, #48
 117 00ac 8A80     		strh	r2, [r1, #4]	@ movhi
  95:printer.c     **** 	    charVolume[1]=((((calcVol%10000)%1000)%100)%10)+48;
 118              		.loc 1 95 0
 119 00ae 03EB8303 		add	r3, r3, r3, lsl #2
 120 00b2 5A00     		lsls	r2, r3, #1
 121 00b4 821A     		subs	r2, r0, r2
 122 00b6 3032     		adds	r2, r2, #48
 123 00b8 4A80     		strh	r2, [r1, #2]	@ movhi
 124              	.LVL5:
 125              	.L4:
  80:printer.c     ****     int8 screen_size;  
 126              		.loc 1 80 0 discriminator 1
 127 00ba 0124     		movs	r4, #1
 128 00bc 18E0     		b	.L3
 129              	.L2:
  96:printer.c     ****     }else{
  97:printer.c     ****         charVolume[5]=side.a.volumeSale[0];
 130              		.loc 1 97 0
ARM GAS  C:\Users\Lenovo\AppData\Local\Temp\ccFjE1Y8.s 			page 5


 131 00be 994A     		ldr	r2, .L81+44
 132 00c0 92F83910 		ldrb	r1, [r2, #57]	@ zero_extendqisi2
 133 00c4 944B     		ldr	r3, .L81+32
 134 00c6 5981     		strh	r1, [r3, #10]	@ movhi
  98:printer.c     **** 	    charVolume[4]=side.a.volumeSale[1];
 135              		.loc 1 98 0
 136 00c8 92F83A10 		ldrb	r1, [r2, #58]	@ zero_extendqisi2
 137 00cc 1981     		strh	r1, [r3, #8]	@ movhi
  99:printer.c     **** 	    charVolume[3]=side.a.volumeSale[2];
 138              		.loc 1 99 0
 139 00ce 92F83B10 		ldrb	r1, [r2, #59]	@ zero_extendqisi2
 140 00d2 D980     		strh	r1, [r3, #6]	@ movhi
 100:printer.c     **** 	    charVolume[2]=side.a.volumeSale[3];
 141              		.loc 1 100 0
 142 00d4 92F83C10 		ldrb	r1, [r2, #60]	@ zero_extendqisi2
 143 00d8 9980     		strh	r1, [r3, #4]	@ movhi
 101:printer.c     **** 	    charVolume[1]=side.a.volumeSale[4];
 144              		.loc 1 101 0
 145 00da 92F83D20 		ldrb	r2, [r2, #61]	@ zero_extendqisi2
 146 00de 5A80     		strh	r2, [r3, #2]	@ movhi
 147 00e0 EBE7     		b	.L4
 148              	.LVL6:
 149              	.L5:
 150              	.LBB2:
 102:printer.c     ****     }
 103:printer.c     ****     for(uint8 i = 1; i<6; i++){
 104:printer.c     ****         EEPROM_1_WriteByte(sale_number[i],i);
 151              		.loc 1 104 0 discriminator 3
 152 00e2 2146     		mov	r1, r4
 153 00e4 854B     		ldr	r3, .L81+4
 154 00e6 185D     		ldrb	r0, [r3, r4]	@ zero_extendqisi2
 155 00e8 FFF7FEFF 		bl	EEPROM_1_WriteByte
 156              	.LVL7:
 103:printer.c     ****         EEPROM_1_WriteByte(sale_number[i],i);
 157              		.loc 1 103 0 discriminator 3
 158 00ec 0134     		adds	r4, r4, #1
 159              	.LVL8:
 160 00ee E4B2     		uxtb	r4, r4
 161              	.LVL9:
 162              	.L3:
 103:printer.c     ****         EEPROM_1_WriteByte(sale_number[i],i);
 163              		.loc 1 103 0 is_stmt 0 discriminator 1
 164 00f0 052C     		cmp	r4, #5
 165 00f2 F6D9     		bls	.L5
 166 00f4 0026     		movs	r6, #0
 167 00f6 0FE0     		b	.L6
 168              	.LVL10:
 169              	.L7:
 170              	.LBE2:
 171              	.LBB3:
 105:printer.c     ****     }
 106:printer.c     ****     while(screen_size == 0){
 107:printer.c     ****         for(uint8 LCDRx = 0; LCDRx < 6; LCDRx++){
 108:printer.c     ****             screen_PutChar(ASK_TIME[LCDRx]);
 172              		.loc 1 108 0 is_stmt 1 discriminator 3
 173 00f8 8B4B     		ldr	r3, .L81+48
 174 00fa 185D     		ldrb	r0, [r3, r4]	@ zero_extendqisi2
ARM GAS  C:\Users\Lenovo\AppData\Local\Temp\ccFjE1Y8.s 			page 6


 175 00fc FFF7FEFF 		bl	screen_PutChar
 176              	.LVL11:
 107:printer.c     ****             screen_PutChar(ASK_TIME[LCDRx]);
 177              		.loc 1 107 0 discriminator 3
 178 0100 0134     		adds	r4, r4, #1
 179              	.LVL12:
 180 0102 E4B2     		uxtb	r4, r4
 181              	.LVL13:
 182 0104 00E0     		b	.L8
 183              	.LVL14:
 184              	.L73:
 185              	.LBE3:
 186 0106 0024     		movs	r4, #0
 187              	.L8:
 188              	.LVL15:
 189              	.LBB4:
 107:printer.c     ****             screen_PutChar(ASK_TIME[LCDRx]);
 190              		.loc 1 107 0 is_stmt 0 discriminator 1
 191 0108 052C     		cmp	r4, #5
 192 010a F5D9     		bls	.L7
 193              	.LBE4:
 109:printer.c     ****         }
 110:printer.c     ****         CyDelay(4);
 194              		.loc 1 110 0 is_stmt 1
 195 010c 0420     		movs	r0, #4
 196 010e FFF7FEFF 		bl	CyDelay
 197              	.LVL16:
 111:printer.c     ****         screen_size = screen_GetRxBufferSize();
 198              		.loc 1 111 0
 199 0112 FFF7FEFF 		bl	screen_GetRxBufferSize
 200              	.LVL17:
 201 0116 46B2     		sxtb	r6, r0
 202              	.LVL18:
 203              	.L6:
 106:printer.c     ****         for(uint8 LCDRx = 0; LCDRx < 6; LCDRx++){
 204              		.loc 1 106 0
 205 0118 002E     		cmp	r6, #0
 206 011a F4D0     		beq	.L73
 112:printer.c     ****     }
 113:printer.c     ****     if(screen_size >= 13 ){
 207              		.loc 1 113 0
 208 011c 0C2E     		cmp	r6, #12
 209 011e 07DC     		bgt	.L74
 210 0120 27E0     		b	.L14
 211              	.LVL19:
 212              	.L11:
 213              	.LBB5:
 114:printer.c     ****         for(uint8 LCDRx = 0; LCDRx < screen_size; LCDRx++){
 115:printer.c     ****             touch1[LCDRx] = screen_ReadRxData();
 214              		.loc 1 115 0 discriminator 3
 215 0122 FFF7FEFF 		bl	screen_ReadRxData
 216              	.LVL20:
 217 0126 814B     		ldr	r3, .L81+52
 218 0128 1855     		strb	r0, [r3, r4]
 114:printer.c     ****         for(uint8 LCDRx = 0; LCDRx < screen_size; LCDRx++){
 219              		.loc 1 114 0 discriminator 3
 220 012a 0134     		adds	r4, r4, #1
ARM GAS  C:\Users\Lenovo\AppData\Local\Temp\ccFjE1Y8.s 			page 7


 221              	.LVL21:
 222 012c E4B2     		uxtb	r4, r4
 223              	.LVL22:
 224 012e 00E0     		b	.L9
 225              	.LVL23:
 226              	.L74:
 227              	.LBE5:
 228 0130 0024     		movs	r4, #0
 229              	.L9:
 230              	.LVL24:
 231              	.LBB6:
 114:printer.c     ****         for(uint8 LCDRx = 0; LCDRx < screen_size; LCDRx++){
 232              		.loc 1 114 0 is_stmt 0 discriminator 1
 233 0132 B442     		cmp	r4, r6
 234 0134 F5DB     		blt	.L11
 235 0136 1CE0     		b	.L14
 236              	.LVL25:
 237              	.L12:
 238              	.LBE6:
 239              	.LBB7:
 116:printer.c     ****         }
 117:printer.c     ****         screen_size = 0;
 118:printer.c     ****     }
 119:printer.c     ****     while(touch1[8] == 0x00){
 120:printer.c     ****          for(uint8 LCDRx = 0; LCDRx < 6; LCDRx++){
 121:printer.c     ****             screen_PutChar(ASK_TIME[LCDRx]);
 240              		.loc 1 121 0 is_stmt 1 discriminator 3
 241 0138 7B4B     		ldr	r3, .L81+48
 242 013a 185D     		ldrb	r0, [r3, r4]	@ zero_extendqisi2
 243 013c FFF7FEFF 		bl	screen_PutChar
 244              	.LVL26:
 120:printer.c     ****             screen_PutChar(ASK_TIME[LCDRx]);
 245              		.loc 1 120 0 discriminator 3
 246 0140 0134     		adds	r4, r4, #1
 247              	.LVL27:
 248 0142 E4B2     		uxtb	r4, r4
 249              	.LVL28:
 250 0144 00E0     		b	.L17
 251              	.LVL29:
 252              	.L76:
 253              	.LBE7:
 254 0146 0024     		movs	r4, #0
 255              	.L17:
 256              	.LVL30:
 257              	.LBB8:
 120:printer.c     ****             screen_PutChar(ASK_TIME[LCDRx]);
 258              		.loc 1 120 0 is_stmt 0 discriminator 1
 259 0148 052C     		cmp	r4, #5
 260 014a F5D9     		bls	.L12
 261              	.LBE8:
 122:printer.c     ****         }
 123:printer.c     ****         CyDelay(4);
 262              		.loc 1 123 0 is_stmt 1
 263 014c 0420     		movs	r0, #4
 264 014e FFF7FEFF 		bl	CyDelay
 265              	.LVL31:
 124:printer.c     ****         screen_size = screen_GetRxBufferSize();
ARM GAS  C:\Users\Lenovo\AppData\Local\Temp\ccFjE1Y8.s 			page 8


 266              		.loc 1 124 0
 267 0152 FFF7FEFF 		bl	screen_GetRxBufferSize
 268              	.LVL32:
 269 0156 46B2     		sxtb	r6, r0
 270              	.LVL33:
 125:printer.c     ****         if(screen_size >= 13 ){
 271              		.loc 1 125 0
 272 0158 0C2E     		cmp	r6, #12
 273 015a 0ADD     		ble	.L14
 274 015c 06E0     		b	.L75
 275              	.LVL34:
 276              	.L15:
 277              	.LBB9:
 126:printer.c     ****             for(uint8 LCDRx = 0; LCDRx < screen_size; LCDRx++){
 127:printer.c     ****                 touch1[LCDRx] = screen_ReadRxData();
 278              		.loc 1 127 0 discriminator 3
 279 015e FFF7FEFF 		bl	screen_ReadRxData
 280              	.LVL35:
 281 0162 724B     		ldr	r3, .L81+52
 282 0164 1855     		strb	r0, [r3, r4]
 126:printer.c     ****             for(uint8 LCDRx = 0; LCDRx < screen_size; LCDRx++){
 283              		.loc 1 126 0 discriminator 3
 284 0166 0134     		adds	r4, r4, #1
 285              	.LVL36:
 286 0168 E4B2     		uxtb	r4, r4
 287              	.LVL37:
 288 016a 00E0     		b	.L13
 289              	.LVL38:
 290              	.L75:
 291              	.LBE9:
 292 016c 0024     		movs	r4, #0
 293              	.LVL39:
 294              	.L13:
 295              	.LBB10:
 126:printer.c     ****             for(uint8 LCDRx = 0; LCDRx < screen_size; LCDRx++){
 296              		.loc 1 126 0 is_stmt 0 discriminator 1
 297 016e B442     		cmp	r4, r6
 298 0170 F5DB     		blt	.L15
 299              	.LVL40:
 300              	.L14:
 301              	.LBE10:
 119:printer.c     ****          for(uint8 LCDRx = 0; LCDRx < 6; LCDRx++){
 302              		.loc 1 119 0 is_stmt 1
 303 0172 6E4B     		ldr	r3, .L81+52
 304 0174 1B7A     		ldrb	r3, [r3, #8]	@ zero_extendqisi2
 305 0176 002B     		cmp	r3, #0
 306 0178 E5D0     		beq	.L76
 307 017a 0024     		movs	r4, #0
 308 017c 06E0     		b	.L18
 309              	.LVL41:
 310              	.L19:
 311              	.LBB11:
 128:printer.c     ****             }
 129:printer.c     ****             screen_size = 0;
 130:printer.c     ****         }
 131:printer.c     ****     }    
 132:printer.c     **** 	for(uint8 x = 0; x < 24; x ++){
ARM GAS  C:\Users\Lenovo\AppData\Local\Temp\ccFjE1Y8.s 			page 9


 133:printer.c     **** 		PRINTER_A_PutChar(msn_EDS[x]);
 312              		.loc 1 133 0 discriminator 3
 313 017e 6A4B     		ldr	r3, .L81+48
 314 0180 2344     		add	r3, r3, r4
 315 0182 187A     		ldrb	r0, [r3, #8]	@ zero_extendqisi2
 316 0184 FFF7FEFF 		bl	PRINTER_A_PutChar
 317              	.LVL42:
 132:printer.c     **** 		PRINTER_A_PutChar(msn_EDS[x]);
 318              		.loc 1 132 0 discriminator 3
 319 0188 0134     		adds	r4, r4, #1
 320              	.LVL43:
 321 018a E4B2     		uxtb	r4, r4
 322              	.LVL44:
 323              	.L18:
 132:printer.c     **** 		PRINTER_A_PutChar(msn_EDS[x]);
 324              		.loc 1 132 0 is_stmt 0 discriminator 1
 325 018c 172C     		cmp	r4, #23
 326 018e F6D9     		bls	.L19
 327 0190 0024     		movs	r4, #0
 328              	.LVL45:
 329 0192 07E0     		b	.L20
 330              	.LVL46:
 331              	.L21:
 332              	.LBE11:
 333              	.LBB12:
 134:printer.c     **** 	}
 135:printer.c     **** //  PRINTER_A_PutChar(LINE_FEED);
 136:printer.c     **** //	for(uint8 x = 0; x < 24; x ++){
 137:printer.c     **** //		PRINTER_A_PutChar(msn_EDS2[x]);
 138:printer.c     **** //	}
 139:printer.c     **** //	PRINTER_A_PutChar(LINE_FEED);
 140:printer.c     **** 	for(uint8 x = 0; x < 24; x ++){
 141:printer.c     **** 		PRINTER_A_PutChar(msn_EDS3[x]);
 334              		.loc 1 141 0 is_stmt 1 discriminator 3
 335 0194 644B     		ldr	r3, .L81+48
 336 0196 2344     		add	r3, r3, r4
 337 0198 93F82000 		ldrb	r0, [r3, #32]	@ zero_extendqisi2
 338 019c FFF7FEFF 		bl	PRINTER_A_PutChar
 339              	.LVL47:
 140:printer.c     **** 		PRINTER_A_PutChar(msn_EDS3[x]);
 340              		.loc 1 140 0 discriminator 3
 341 01a0 0134     		adds	r4, r4, #1
 342              	.LVL48:
 343 01a2 E4B2     		uxtb	r4, r4
 344              	.LVL49:
 345              	.L20:
 140:printer.c     **** 		PRINTER_A_PutChar(msn_EDS3[x]);
 346              		.loc 1 140 0 is_stmt 0 discriminator 1
 347 01a4 172C     		cmp	r4, #23
 348 01a6 F5D9     		bls	.L21
 349 01a8 0024     		movs	r4, #0
 350              	.LVL50:
 351 01aa 07E0     		b	.L22
 352              	.LVL51:
 353              	.L23:
 354              	.LBE12:
 355              	.LBB13:
ARM GAS  C:\Users\Lenovo\AppData\Local\Temp\ccFjE1Y8.s 			page 10


 142:printer.c     **** 	}
 143:printer.c     **** //RINTER_A_PutChar(LINE_FEED);
 144:printer.c     **** //	for(uint8 x = 0; x < 24; x ++){
 145:printer.c     **** //		PRINTER_A_PutChar(msn_EDS4[x]);
 146:printer.c     **** //	}
 147:printer.c     **** //    PRINTER_A_PutChar(LINE_FEED);
 148:printer.c     ****     for(uint8 x = 0; x < 24; x ++){
 149:printer.c     **** 		PRINTER_A_PutChar(msn_EDS5[x]);
 356              		.loc 1 149 0 is_stmt 1 discriminator 3
 357 01ac 5E4B     		ldr	r3, .L81+48
 358 01ae 2344     		add	r3, r3, r4
 359 01b0 93F83800 		ldrb	r0, [r3, #56]	@ zero_extendqisi2
 360 01b4 FFF7FEFF 		bl	PRINTER_A_PutChar
 361              	.LVL52:
 148:printer.c     **** 		PRINTER_A_PutChar(msn_EDS5[x]);
 362              		.loc 1 148 0 discriminator 3
 363 01b8 0134     		adds	r4, r4, #1
 364              	.LVL53:
 365 01ba E4B2     		uxtb	r4, r4
 366              	.LVL54:
 367              	.L22:
 148:printer.c     **** 		PRINTER_A_PutChar(msn_EDS5[x]);
 368              		.loc 1 148 0 is_stmt 0 discriminator 1
 369 01bc 172C     		cmp	r4, #23
 370 01be F5D9     		bls	.L23
 371              	.LBE13:
 150:printer.c     **** 	}
 151:printer.c     ****     PRINTER_A_PutChar(LINE_FEED);
 372              		.loc 1 151 0 is_stmt 1
 373 01c0 594B     		ldr	r3, .L81+48
 374 01c2 93F85000 		ldrb	r0, [r3, #80]	@ zero_extendqisi2
 375 01c6 FFF7FEFF 		bl	PRINTER_A_PutChar
 376              	.LVL55:
 377              	.LBB14:
 152:printer.c     ****     for(uint8 x = 0; x < 24; x ++){
 378              		.loc 1 152 0
 379 01ca 0024     		movs	r4, #0
 380              	.LVL56:
 381 01cc 07E0     		b	.L24
 382              	.LVL57:
 383              	.L25:
 153:printer.c     **** 		PRINTER_A_PutChar(msn_EDS6[x]);
 384              		.loc 1 153 0 discriminator 3
 385 01ce 564B     		ldr	r3, .L81+48
 386 01d0 2344     		add	r3, r3, r4
 387 01d2 93F85400 		ldrb	r0, [r3, #84]	@ zero_extendqisi2
 388 01d6 FFF7FEFF 		bl	PRINTER_A_PutChar
 389              	.LVL58:
 152:printer.c     ****     for(uint8 x = 0; x < 24; x ++){
 390              		.loc 1 152 0 discriminator 3
 391 01da 0134     		adds	r4, r4, #1
 392              	.LVL59:
 393 01dc E4B2     		uxtb	r4, r4
 394              	.LVL60:
 395              	.L24:
 152:printer.c     ****     for(uint8 x = 0; x < 24; x ++){
 396              		.loc 1 152 0 is_stmt 0 discriminator 1
ARM GAS  C:\Users\Lenovo\AppData\Local\Temp\ccFjE1Y8.s 			page 11


 397 01de 172C     		cmp	r4, #23
 398 01e0 F5D9     		bls	.L25
 399              	.LBE14:
 154:printer.c     **** 	}    
 155:printer.c     ****     PRINTER_A_PutChar(LINE_FEED);
 400              		.loc 1 155 0 is_stmt 1
 401 01e2 514B     		ldr	r3, .L81+48
 402 01e4 93F85000 		ldrb	r0, [r3, #80]	@ zero_extendqisi2
 403 01e8 FFF7FEFF 		bl	PRINTER_A_PutChar
 404              	.LVL61:
 405              	.LBB15:
 156:printer.c     **** 	for(uint8 x = 0; x < 24; x ++){
 406              		.loc 1 156 0
 407 01ec 0024     		movs	r4, #0
 408              	.LVL62:
 409 01ee 07E0     		b	.L26
 410              	.LVL63:
 411              	.L27:
 157:printer.c     **** 		PRINTER_A_PutChar(SEPARATOR[x]);
 412              		.loc 1 157 0 discriminator 3
 413 01f0 4D4B     		ldr	r3, .L81+48
 414 01f2 2344     		add	r3, r3, r4
 415 01f4 93F86C00 		ldrb	r0, [r3, #108]	@ zero_extendqisi2
 416 01f8 FFF7FEFF 		bl	PRINTER_A_PutChar
 417              	.LVL64:
 156:printer.c     **** 	for(uint8 x = 0; x < 24; x ++){
 418              		.loc 1 156 0 discriminator 3
 419 01fc 0134     		adds	r4, r4, #1
 420              	.LVL65:
 421 01fe E4B2     		uxtb	r4, r4
 422              	.LVL66:
 423              	.L26:
 156:printer.c     **** 	for(uint8 x = 0; x < 24; x ++){
 424              		.loc 1 156 0 is_stmt 0 discriminator 1
 425 0200 172C     		cmp	r4, #23
 426 0202 F5D9     		bls	.L27
 427              	.LBE15:
 158:printer.c     **** 	}
 159:printer.c     ****     PRINTER_A_PutChar(LINE_FEED);
 428              		.loc 1 159 0 is_stmt 1
 429 0204 484B     		ldr	r3, .L81+48
 430 0206 93F85000 		ldrb	r0, [r3, #80]	@ zero_extendqisi2
 431 020a FFF7FEFF 		bl	PRINTER_A_PutChar
 432              	.LVL67:
 433              	.LBB16:
 160:printer.c     ****     /********** FECHA ***************/
 161:printer.c     **** 	for(uint8 x = 0; x < 13; x ++){
 434              		.loc 1 161 0
 435 020e 0024     		movs	r4, #0
 436              	.LVL68:
 437 0210 07E0     		b	.L28
 438              	.LVL69:
 439              	.L29:
 162:printer.c     **** 		PRINTER_A_PutChar(msn_fecha[x]);
 440              		.loc 1 162 0 discriminator 3
 441 0212 454B     		ldr	r3, .L81+48
 442 0214 2344     		add	r3, r3, r4
ARM GAS  C:\Users\Lenovo\AppData\Local\Temp\ccFjE1Y8.s 			page 12


 443 0216 93F88C00 		ldrb	r0, [r3, #140]	@ zero_extendqisi2
 444 021a FFF7FEFF 		bl	PRINTER_A_PutChar
 445              	.LVL70:
 161:printer.c     **** 		PRINTER_A_PutChar(msn_fecha[x]);
 446              		.loc 1 161 0 discriminator 3
 447 021e 0134     		adds	r4, r4, #1
 448              	.LVL71:
 449 0220 E4B2     		uxtb	r4, r4
 450              	.LVL72:
 451              	.L28:
 161:printer.c     **** 		PRINTER_A_PutChar(msn_fecha[x]);
 452              		.loc 1 161 0 is_stmt 0 discriminator 1
 453 0222 0C2C     		cmp	r4, #12
 454 0224 F5D9     		bls	.L29
 455              	.LBE16:
 163:printer.c     **** 	}
 164:printer.c     ****     PRINTER_A_PutChar(((touch1[8] >> 4) + 0x30)) ;
 456              		.loc 1 164 0 is_stmt 1
 457 0226 414C     		ldr	r4, .L81+52
 458              	.LVL73:
 459 0228 207A     		ldrb	r0, [r4, #8]	@ zero_extendqisi2
 460 022a 0009     		lsrs	r0, r0, #4
 461 022c 3030     		adds	r0, r0, #48
 462 022e FFF7FEFF 		bl	PRINTER_A_PutChar
 463              	.LVL74:
 165:printer.c     **** 	PRINTER_A_PutChar(((touch1[8] & 0x0F) + 0x30));
 464              		.loc 1 165 0
 465 0232 207A     		ldrb	r0, [r4, #8]	@ zero_extendqisi2
 466 0234 00F00F00 		and	r0, r0, #15
 467 0238 3030     		adds	r0, r0, #48
 468 023a FFF7FEFF 		bl	PRINTER_A_PutChar
 469              	.LVL75:
 166:printer.c     ****     PRINTER_A_PutChar('/');
 470              		.loc 1 166 0
 471 023e 2F20     		movs	r0, #47
 472 0240 FFF7FEFF 		bl	PRINTER_A_PutChar
 473              	.LVL76:
 167:printer.c     ****     PRINTER_A_PutChar(((touch1[7] >> 4) + 0x30)) ;
 474              		.loc 1 167 0
 475 0244 E079     		ldrb	r0, [r4, #7]	@ zero_extendqisi2
 476 0246 0009     		lsrs	r0, r0, #4
 477 0248 3030     		adds	r0, r0, #48
 478 024a FFF7FEFF 		bl	PRINTER_A_PutChar
 479              	.LVL77:
 168:printer.c     ****     PRINTER_A_PutChar(((touch1[7] & 0x0F) + 0x30));
 480              		.loc 1 168 0
 481 024e E079     		ldrb	r0, [r4, #7]	@ zero_extendqisi2
 482 0250 00F00F00 		and	r0, r0, #15
 483 0254 3030     		adds	r0, r0, #48
 484 0256 FFF7FEFF 		bl	PRINTER_A_PutChar
 485              	.LVL78:
 169:printer.c     ****     PRINTER_A_PutChar('/');    
 486              		.loc 1 169 0
 487 025a 2F20     		movs	r0, #47
 488 025c FFF7FEFF 		bl	PRINTER_A_PutChar
 489              	.LVL79:
 170:printer.c     ****     PRINTER_A_PutChar(((touch1[6] >> 4) + 0x30));
ARM GAS  C:\Users\Lenovo\AppData\Local\Temp\ccFjE1Y8.s 			page 13


 490              		.loc 1 170 0
 491 0260 A079     		ldrb	r0, [r4, #6]	@ zero_extendqisi2
 492 0262 0009     		lsrs	r0, r0, #4
 493 0264 3030     		adds	r0, r0, #48
 494 0266 FFF7FEFF 		bl	PRINTER_A_PutChar
 495              	.LVL80:
 171:printer.c     ****     PRINTER_A_PutChar(((touch1[6] & 0x0F) + 0x30));
 496              		.loc 1 171 0
 497 026a A079     		ldrb	r0, [r4, #6]	@ zero_extendqisi2
 498 026c 00F00F00 		and	r0, r0, #15
 499 0270 3030     		adds	r0, r0, #48
 500 0272 FFF7FEFF 		bl	PRINTER_A_PutChar
 501              	.LVL81:
 172:printer.c     **** 	PRINTER_A_PutChar(LINE_FEED);
 502              		.loc 1 172 0
 503 0276 2C4B     		ldr	r3, .L81+48
 504 0278 93F85000 		ldrb	r0, [r3, #80]	@ zero_extendqisi2
 505 027c FFF7FEFF 		bl	PRINTER_A_PutChar
 506              	.LVL82:
 507              	.LBB17:
 173:printer.c     ****     /********** HORA ***************/
 174:printer.c     **** 	for(uint8 x = 0; x < 13; x ++){
 508              		.loc 1 174 0
 509 0280 0024     		movs	r4, #0
 510 0282 07E0     		b	.L30
 511              	.LVL83:
 512              	.L31:
 175:printer.c     **** 		PRINTER_A_PutChar(msn_hora[x]);
 513              		.loc 1 175 0 discriminator 3
 514 0284 284B     		ldr	r3, .L81+48
 515 0286 2344     		add	r3, r3, r4
 516 0288 93F89C00 		ldrb	r0, [r3, #156]	@ zero_extendqisi2
 517 028c FFF7FEFF 		bl	PRINTER_A_PutChar
 518              	.LVL84:
 174:printer.c     **** 		PRINTER_A_PutChar(msn_hora[x]);
 519              		.loc 1 174 0 discriminator 3
 520 0290 0134     		adds	r4, r4, #1
 521              	.LVL85:
 522 0292 E4B2     		uxtb	r4, r4
 523              	.LVL86:
 524              	.L30:
 174:printer.c     **** 		PRINTER_A_PutChar(msn_hora[x]);
 525              		.loc 1 174 0 is_stmt 0 discriminator 1
 526 0294 0C2C     		cmp	r4, #12
 527 0296 F5D9     		bls	.L31
 528              	.LBE17:
 176:printer.c     **** 	}
 177:printer.c     ****     PRINTER_A_PutChar(((touch1[10] >> 4) + 0x30)) ;
 529              		.loc 1 177 0 is_stmt 1
 530 0298 244C     		ldr	r4, .L81+52
 531              	.LVL87:
 532 029a A07A     		ldrb	r0, [r4, #10]	@ zero_extendqisi2
 533 029c 0009     		lsrs	r0, r0, #4
 534 029e 3030     		adds	r0, r0, #48
 535 02a0 FFF7FEFF 		bl	PRINTER_A_PutChar
 536              	.LVL88:
 178:printer.c     ****     PRINTER_A_PutChar(((touch1[10] & 0x0F) + 0x30));
ARM GAS  C:\Users\Lenovo\AppData\Local\Temp\ccFjE1Y8.s 			page 14


 537              		.loc 1 178 0
 538 02a4 A07A     		ldrb	r0, [r4, #10]	@ zero_extendqisi2
 539 02a6 00F00F00 		and	r0, r0, #15
 540 02aa 3030     		adds	r0, r0, #48
 541 02ac FFF7FEFF 		bl	PRINTER_A_PutChar
 542              	.LVL89:
 179:printer.c     ****     PRINTER_A_PutChar(':');
 543              		.loc 1 179 0
 544 02b0 3A20     		movs	r0, #58
 545 02b2 FFF7FEFF 		bl	PRINTER_A_PutChar
 546              	.LVL90:
 180:printer.c     ****     PRINTER_A_PutChar(((touch1[11] >> 4) + 0x30)) ;
 547              		.loc 1 180 0
 548 02b6 E07A     		ldrb	r0, [r4, #11]	@ zero_extendqisi2
 549 02b8 0009     		lsrs	r0, r0, #4
 550 02ba 3030     		adds	r0, r0, #48
 551 02bc FFF7FEFF 		bl	PRINTER_A_PutChar
 552              	.LVL91:
 181:printer.c     ****     PRINTER_A_PutChar(((touch1[11] & 0x0F) + 0x30));
 553              		.loc 1 181 0
 554 02c0 E07A     		ldrb	r0, [r4, #11]	@ zero_extendqisi2
 555 02c2 00F00F00 		and	r0, r0, #15
 556 02c6 3030     		adds	r0, r0, #48
 557 02c8 FFF7FEFF 		bl	PRINTER_A_PutChar
 558              	.LVL92:
 182:printer.c     ****     PRINTER_A_PutChar(':');
 559              		.loc 1 182 0
 560 02cc 3A20     		movs	r0, #58
 561 02ce FFF7FEFF 		bl	PRINTER_A_PutChar
 562              	.LVL93:
 183:printer.c     ****     PRINTER_A_PutChar(((touch1[12] >> 4) + 0x30));
 563              		.loc 1 183 0
 564 02d2 207B     		ldrb	r0, [r4, #12]	@ zero_extendqisi2
 565 02d4 0009     		lsrs	r0, r0, #4
 566 02d6 3030     		adds	r0, r0, #48
 567 02d8 FFF7FEFF 		bl	PRINTER_A_PutChar
 568              	.LVL94:
 184:printer.c     **** 	PRINTER_A_PutChar(((touch1[12] & 0x0F) + 0x30));
 569              		.loc 1 184 0
 570 02dc 207B     		ldrb	r0, [r4, #12]	@ zero_extendqisi2
 571 02de 00F00F00 		and	r0, r0, #15
 572 02e2 3030     		adds	r0, r0, #48
 573 02e4 FFF7FEFF 		bl	PRINTER_A_PutChar
 574              	.LVL95:
 185:printer.c     **** 	
 186:printer.c     ****     PRINTER_A_PutChar(LINE_FEED);
 575              		.loc 1 186 0
 576 02e8 0F4B     		ldr	r3, .L81+48
 577 02ea 93F85000 		ldrb	r0, [r3, #80]	@ zero_extendqisi2
 578 02ee FFF7FEFF 		bl	PRINTER_A_PutChar
 579              	.LVL96:
 580              	.LBB18:
 187:printer.c     ****     for(uint8 x = 0; x < 24; x ++){
 581              		.loc 1 187 0
 582 02f2 0024     		movs	r4, #0
 583 02f4 24E0     		b	.L32
 584              	.L82:
ARM GAS  C:\Users\Lenovo\AppData\Local\Temp\ccFjE1Y8.s 			page 15


 585 02f6 00BF     		.align	2
 586              	.L81:
 587 02f8 00000000 		.word	int_salenumber
 588 02fc 00000000 		.word	sale_number
 589 0300 1F85EB51 		.word	1374389535
 590 0304 67666666 		.word	1717986919
 591 0308 00000000 		.word	PrintVol
 592 030c 00000000 		.word	filteredCount
 593 0310 00000000 		.word	divider
 594 0314 5917B7D1 		.word	-776530087
 595 0318 00000000 		.word	charVolume
 596 031c D34D6210 		.word	274877907
 597 0320 CDCCCCCC 		.word	-858993459
 598 0324 00000000 		.word	side
 599 0328 00000000 		.word	.LANCHOR0
 600 032c 00000000 		.word	touch1
 601              	.LVL97:
 602              	.L33:
 188:printer.c     **** 		PRINTER_A_PutChar(SEPARATOR[x]);
 603              		.loc 1 188 0 discriminator 3
 604 0330 A94B     		ldr	r3, .L83
 605 0332 2344     		add	r3, r3, r4
 606 0334 93F86C00 		ldrb	r0, [r3, #108]	@ zero_extendqisi2
 607 0338 FFF7FEFF 		bl	PRINTER_A_PutChar
 608              	.LVL98:
 187:printer.c     ****     for(uint8 x = 0; x < 24; x ++){
 609              		.loc 1 187 0 discriminator 3
 610 033c 0134     		adds	r4, r4, #1
 611              	.LVL99:
 612 033e E4B2     		uxtb	r4, r4
 613              	.LVL100:
 614              	.L32:
 187:printer.c     ****     for(uint8 x = 0; x < 24; x ++){
 615              		.loc 1 187 0 is_stmt 0 discriminator 1
 616 0340 172C     		cmp	r4, #23
 617 0342 F5D9     		bls	.L33
 618              	.LBE18:
 189:printer.c     **** 	}
 190:printer.c     ****             
 191:printer.c     **** 	/***** body ******/
 192:printer.c     **** 	if(address == side.a.dir){
 619              		.loc 1 192 0 is_stmt 1
 620 0344 A54B     		ldr	r3, .L83+4
 621 0346 1B78     		ldrb	r3, [r3]	@ zero_extendqisi2
 622 0348 AB42     		cmp	r3, r5
 623 034a 40F0B680 		bne	.L34
 193:printer.c     ****         if(side.a.Copy == 1){
 624              		.loc 1 193 0
 625 034e A34B     		ldr	r3, .L83+4
 626 0350 93F8AD30 		ldrb	r3, [r3, #173]	@ zero_extendqisi2
 627 0354 012B     		cmp	r3, #1
 628 0356 1DD1     		bne	.L36
 629 0358 08E0     		b	.L77
 630              	.LVL101:
 631              	.L37:
 632              	.LBB19:
 194:printer.c     ****             for(uint8 x = 0; x < 24; x ++){
ARM GAS  C:\Users\Lenovo\AppData\Local\Temp\ccFjE1Y8.s 			page 16


 195:printer.c     ****         		PRINTER_A_PutChar(msn_copy[x]);
 633              		.loc 1 195 0 discriminator 3
 634 035a 9F4B     		ldr	r3, .L83
 635 035c 2344     		add	r3, r3, r4
 636 035e 93F8AC00 		ldrb	r0, [r3, #172]	@ zero_extendqisi2
 637 0362 FFF7FEFF 		bl	PRINTER_A_PutChar
 638              	.LVL102:
 194:printer.c     ****             for(uint8 x = 0; x < 24; x ++){
 639              		.loc 1 194 0 discriminator 3
 640 0366 0134     		adds	r4, r4, #1
 641              	.LVL103:
 642 0368 E4B2     		uxtb	r4, r4
 643              	.LVL104:
 644 036a 00E0     		b	.L35
 645              	.LVL105:
 646              	.L77:
 647              	.LBE19:
 648 036c 0024     		movs	r4, #0
 649              	.LVL106:
 650              	.L35:
 651              	.LBB20:
 194:printer.c     ****             for(uint8 x = 0; x < 24; x ++){
 652              		.loc 1 194 0 is_stmt 0 discriminator 1
 653 036e 172C     		cmp	r4, #23
 654 0370 F3D9     		bls	.L37
 655              	.LBE20:
 196:printer.c     ****         	}
 197:printer.c     ****             PRINTER_A_PutChar(LINE_FEED);
 656              		.loc 1 197 0 is_stmt 1
 657 0372 994B     		ldr	r3, .L83
 658 0374 93F85000 		ldrb	r0, [r3, #80]	@ zero_extendqisi2
 659 0378 FFF7FEFF 		bl	PRINTER_A_PutChar
 660              	.LVL107:
 661              	.LBB21:
 198:printer.c     ****             for(uint8 x = 0; x < 24; x ++){
 662              		.loc 1 198 0
 663 037c 0024     		movs	r4, #0
 664              	.LVL108:
 665 037e 07E0     		b	.L38
 666              	.LVL109:
 667              	.L39:
 199:printer.c     ****         		PRINTER_A_PutChar(SEPARATOR[x]);
 668              		.loc 1 199 0 discriminator 3
 669 0380 954B     		ldr	r3, .L83
 670 0382 2344     		add	r3, r3, r4
 671 0384 93F86C00 		ldrb	r0, [r3, #108]	@ zero_extendqisi2
 672 0388 FFF7FEFF 		bl	PRINTER_A_PutChar
 673              	.LVL110:
 198:printer.c     ****             for(uint8 x = 0; x < 24; x ++){
 674              		.loc 1 198 0 discriminator 3
 675 038c 0134     		adds	r4, r4, #1
 676              	.LVL111:
 677 038e E4B2     		uxtb	r4, r4
 678              	.LVL112:
 679              	.L38:
 198:printer.c     ****             for(uint8 x = 0; x < 24; x ++){
 680              		.loc 1 198 0 is_stmt 0 discriminator 1
ARM GAS  C:\Users\Lenovo\AppData\Local\Temp\ccFjE1Y8.s 			page 17


 681 0390 172C     		cmp	r4, #23
 682 0392 F5D9     		bls	.L39
 683              	.LVL113:
 684              	.L36:
 685              	.LBE21:
 200:printer.c     ****         	}            
 201:printer.c     ****         }
 202:printer.c     ****         PRINTER_A_PutChar(LINE_FEED);
 686              		.loc 1 202 0 is_stmt 1
 687 0394 904B     		ldr	r3, .L83
 688 0396 93F85000 		ldrb	r0, [r3, #80]	@ zero_extendqisi2
 689 039a FFF7FEFF 		bl	PRINTER_A_PutChar
 690              	.LVL114:
 691              	.LBB22:
 203:printer.c     ****         for(uint8 x = 0; x < 13; x ++){
 692              		.loc 1 203 0
 693 039e 0024     		movs	r4, #0
 694 03a0 07E0     		b	.L40
 695              	.LVL115:
 696              	.L41:
 204:printer.c     ****     		PRINTER_A_PutChar(msn_venta[x]);
 697              		.loc 1 204 0 discriminator 3
 698 03a2 8D4B     		ldr	r3, .L83
 699 03a4 2344     		add	r3, r3, r4
 700 03a6 93F8C400 		ldrb	r0, [r3, #196]	@ zero_extendqisi2
 701 03aa FFF7FEFF 		bl	PRINTER_A_PutChar
 702              	.LVL116:
 203:printer.c     ****         for(uint8 x = 0; x < 13; x ++){
 703              		.loc 1 203 0 discriminator 3
 704 03ae 0134     		adds	r4, r4, #1
 705              	.LVL117:
 706 03b0 E4B2     		uxtb	r4, r4
 707              	.LVL118:
 708              	.L40:
 203:printer.c     ****         for(uint8 x = 0; x < 13; x ++){
 709              		.loc 1 203 0 is_stmt 0 discriminator 1
 710 03b2 0C2C     		cmp	r4, #12
 711 03b4 F5D9     		bls	.L41
 712              	.LBE22:
 205:printer.c     ****     	}
 206:printer.c     ****         if(side.a.Copy == 1){
 713              		.loc 1 206 0 is_stmt 1
 714 03b6 894B     		ldr	r3, .L83+4
 715 03b8 93F8AD30 		ldrb	r3, [r3, #173]	@ zero_extendqisi2
 716 03bc 012B     		cmp	r3, #1
 717 03be 08D0     		beq	.L78
 718 03c0 0524     		movs	r4, #5
 719              	.LVL119:
 720 03c2 10E0     		b	.L43
 721              	.LVL120:
 722              	.L44:
 723              	.LBB23:
 207:printer.c     ****            for(uint8 x = 5; x > 0; x --){
 208:printer.c     ****         		PRINTER_A_PutChar(sale_number_copy[x]);
 724              		.loc 1 208 0 discriminator 3
 725 03c4 864B     		ldr	r3, .L83+8
 726 03c6 185D     		ldrb	r0, [r3, r4]	@ zero_extendqisi2
ARM GAS  C:\Users\Lenovo\AppData\Local\Temp\ccFjE1Y8.s 			page 18


 727 03c8 FFF7FEFF 		bl	PRINTER_A_PutChar
 728              	.LVL121:
 207:printer.c     ****            for(uint8 x = 5; x > 0; x --){
 729              		.loc 1 207 0 discriminator 3
 730 03cc 013C     		subs	r4, r4, #1
 731              	.LVL122:
 732 03ce E4B2     		uxtb	r4, r4
 733              	.LVL123:
 734 03d0 00E0     		b	.L42
 735              	.LVL124:
 736              	.L78:
 737              	.LBE23:
 738 03d2 0524     		movs	r4, #5
 739              	.LVL125:
 740              	.L42:
 741              	.LBB24:
 207:printer.c     ****            for(uint8 x = 5; x > 0; x --){
 742              		.loc 1 207 0 is_stmt 0 discriminator 1
 743 03d4 002C     		cmp	r4, #0
 744 03d6 F5D1     		bne	.L44
 745 03d8 0BE0     		b	.L45
 746              	.LVL126:
 747              	.L46:
 748              	.LBE24:
 749              	.LBB25:
 209:printer.c     ****         	} 
 210:printer.c     ****         }else{
 211:printer.c     ****             for(uint8 x = 5; x > 0; x --){
 212:printer.c     ****         		PRINTER_A_PutChar(sale_number[x]);
 750              		.loc 1 212 0 is_stmt 1 discriminator 3
 751 03da 824B     		ldr	r3, .L83+12
 752 03dc 185D     		ldrb	r0, [r3, r4]	@ zero_extendqisi2
 753 03de FFF7FEFF 		bl	PRINTER_A_PutChar
 754              	.LVL127:
 211:printer.c     ****         		PRINTER_A_PutChar(sale_number[x]);
 755              		.loc 1 211 0 discriminator 3
 756 03e2 013C     		subs	r4, r4, #1
 757              	.LVL128:
 758 03e4 E4B2     		uxtb	r4, r4
 759              	.LVL129:
 760              	.L43:
 211:printer.c     ****         		PRINTER_A_PutChar(sale_number[x]);
 761              		.loc 1 211 0 is_stmt 0 discriminator 1
 762 03e6 002C     		cmp	r4, #0
 763 03e8 F7D1     		bne	.L46
 764              	.LBE25:
 213:printer.c     ****         	}
 214:printer.c     ****             int_salenumber++;
 765              		.loc 1 214 0 is_stmt 1
 766 03ea 7F4A     		ldr	r2, .L83+16
 767 03ec 1378     		ldrb	r3, [r2]	@ zero_extendqisi2
 768 03ee 0133     		adds	r3, r3, #1
 769 03f0 1370     		strb	r3, [r2]
 770              	.LVL130:
 771              	.L45:
 215:printer.c     ****         }
 216:printer.c     ****         PRINTER_A_PutChar(LINE_FEED);
ARM GAS  C:\Users\Lenovo\AppData\Local\Temp\ccFjE1Y8.s 			page 19


 772              		.loc 1 216 0
 773 03f2 794B     		ldr	r3, .L83
 774 03f4 93F85000 		ldrb	r0, [r3, #80]	@ zero_extendqisi2
 775 03f8 FFF7FEFF 		bl	PRINTER_A_PutChar
 776              	.LVL131:
 777              	.LBB26:
 217:printer.c     ****     	for(uint8 x = 0; x < 13; x ++){
 778              		.loc 1 217 0
 779 03fc 0024     		movs	r4, #0
 780 03fe 07E0     		b	.L47
 781              	.LVL132:
 782              	.L48:
 218:printer.c     ****     		PRINTER_A_PutChar(msn_placa[x]);
 783              		.loc 1 218 0 discriminator 3
 784 0400 754B     		ldr	r3, .L83
 785 0402 2344     		add	r3, r3, r4
 786 0404 93F8D400 		ldrb	r0, [r3, #212]	@ zero_extendqisi2
 787 0408 FFF7FEFF 		bl	PRINTER_A_PutChar
 788              	.LVL133:
 217:printer.c     ****     	for(uint8 x = 0; x < 13; x ++){
 789              		.loc 1 217 0 discriminator 3
 790 040c 0134     		adds	r4, r4, #1
 791              	.LVL134:
 792 040e E4B2     		uxtb	r4, r4
 793              	.LVL135:
 794              	.L47:
 217:printer.c     ****     	for(uint8 x = 0; x < 13; x ++){
 795              		.loc 1 217 0 is_stmt 0 discriminator 1
 796 0410 0C2C     		cmp	r4, #12
 797 0412 F5D9     		bls	.L48
 798 0414 0024     		movs	r4, #0
 799              	.LVL136:
 800 0416 07E0     		b	.L49
 801              	.LVL137:
 802              	.L50:
 803              	.LBE26:
 804              	.LBB27:
 219:printer.c     ****     	}
 220:printer.c     **** 		for(uint8 x = 0; x < 8; x ++){
 221:printer.c     **** 			PRINTER_A_PutChar(side.a.msn_plate[x]);
 805              		.loc 1 221 0 is_stmt 1 discriminator 3
 806 0418 704B     		ldr	r3, .L83+4
 807 041a 2344     		add	r3, r3, r4
 808 041c 93F89C00 		ldrb	r0, [r3, #156]	@ zero_extendqisi2
 809 0420 FFF7FEFF 		bl	PRINTER_A_PutChar
 810              	.LVL138:
 220:printer.c     **** 			PRINTER_A_PutChar(side.a.msn_plate[x]);
 811              		.loc 1 220 0 discriminator 3
 812 0424 0134     		adds	r4, r4, #1
 813              	.LVL139:
 814 0426 E4B2     		uxtb	r4, r4
 815              	.LVL140:
 816              	.L49:
 220:printer.c     **** 			PRINTER_A_PutChar(side.a.msn_plate[x]);
 817              		.loc 1 220 0 is_stmt 0 discriminator 1
 818 0428 072C     		cmp	r4, #7
 819 042a F5D9     		bls	.L50
ARM GAS  C:\Users\Lenovo\AppData\Local\Temp\ccFjE1Y8.s 			page 20


 820              	.LBE27:
 222:printer.c     **** 		}  
 223:printer.c     ****         PRINTER_A_PutChar(LINE_FEED);
 821              		.loc 1 223 0 is_stmt 1
 822 042c 6A4B     		ldr	r3, .L83
 823 042e 93F85000 		ldrb	r0, [r3, #80]	@ zero_extendqisi2
 824 0432 FFF7FEFF 		bl	PRINTER_A_PutChar
 825              	.LVL141:
 826              	.LBB28:
 224:printer.c     **** //        for(uint8 x = 0; x < 13; x ++){
 225:printer.c     **** //			PRINTER_A_PutChar(PRN_MILLEAGE[x]);
 226:printer.c     **** //		}          
 227:printer.c     **** //        for(uint8 x = 0; x <6; x ++){
 228:printer.c     **** //			PRINTER_A_PutChar(side.a.km[x]);
 229:printer.c     **** //		}  
 230:printer.c     **** //        PRINTER_A_PutChar(LINE_FEED);
 231:printer.c     **** //		for(uint8 x = 0; x < 13; x ++){
 232:printer.c     **** //			PRINTER_A_PutChar(msn_pos[x]);
 233:printer.c     **** //		}
 234:printer.c     **** //		PRINTER_A_PutChar((side.a.dir)+ 0x31);
 235:printer.c     **** //		PRINTER_A_PutChar(LINE_FEED);
 236:printer.c     **** //		for(uint8 x = 0; x < 13; x ++){
 237:printer.c     **** //			PRINTER_A_PutChar(msn_product[x]);
 238:printer.c     **** //		}
 239:printer.c     **** //        if(side.a.Nozzle == 0x01){
 240:printer.c     **** //    		for(uint8 x = 0; x < 9; x ++){
 241:printer.c     **** //    			PRINTER_A_PutChar(msn_diesel[x]);
 242:printer.c     **** //    		}
 243:printer.c     **** //        }else{
 244:printer.c     **** //            for(uint8 x = 0; x < 9; x ++){
 245:printer.c     **** //    			PRINTER_A_PutChar(msn_gasoline[x]);
 246:printer.c     **** //    		}
 247:printer.c     **** //        } 
 248:printer.c     **** //        PRINTER_A_PutChar(LINE_FEED); 	
 249:printer.c     **** //		for(uint8 x = 0; x < 13; x ++){
 250:printer.c     **** //			PRINTER_A_PutChar(msn_ppu[x]);
 251:printer.c     **** //		}
 252:printer.c     **** //		PRINTER_A_PutChar(PRN_CURRENCY[0]);  
 253:printer.c     **** //		PRINTER_A_PutChar(' ');
 254:printer.c     **** //		for(uint8 x = 1; x < 6; x ++){
 255:printer.c     **** //			PRINTER_A_PutChar(side.a.ProcessedPPU[side.a.Nozzle-1][x]);
 256:printer.c     **** //		}
 257:printer.c     **** //        PRINTER_A_PutChar(LINE_FEED);
 258:printer.c     **** 		for(uint8 x = 0; x < 13; x ++){
 827              		.loc 1 258 0
 828 0436 0024     		movs	r4, #0
 829              	.LVL142:
 830 0438 07E0     		b	.L51
 831              	.LVL143:
 832              	.L52:
 259:printer.c     **** 			PRINTER_A_PutChar(msn_vol[x]);
 833              		.loc 1 259 0 discriminator 3
 834 043a 674B     		ldr	r3, .L83
 835 043c 2344     		add	r3, r3, r4
 836 043e 93F8E400 		ldrb	r0, [r3, #228]	@ zero_extendqisi2
 837 0442 FFF7FEFF 		bl	PRINTER_A_PutChar
 838              	.LVL144:
ARM GAS  C:\Users\Lenovo\AppData\Local\Temp\ccFjE1Y8.s 			page 21


 258:printer.c     **** 			PRINTER_A_PutChar(msn_vol[x]);
 839              		.loc 1 258 0 discriminator 3
 840 0446 0134     		adds	r4, r4, #1
 841              	.LVL145:
 842 0448 E4B2     		uxtb	r4, r4
 843              	.LVL146:
 844              	.L51:
 258:printer.c     **** 			PRINTER_A_PutChar(msn_vol[x]);
 845              		.loc 1 258 0 is_stmt 0 discriminator 1
 846 044a 0C2C     		cmp	r4, #12
 847 044c F5D9     		bls	.L52
 848              	.LBE28:
 260:printer.c     **** 		}
 261:printer.c     ****         if(side.a.Copy == 1){
 849              		.loc 1 261 0 is_stmt 1
 850 044e 634B     		ldr	r3, .L83+4
 851 0450 93F8AD30 		ldrb	r3, [r3, #173]	@ zero_extendqisi2
 852 0454 012B     		cmp	r3, #1
 853 0456 09D0     		beq	.L79
 854 0458 0524     		movs	r4, #5
 855              	.LVL147:
 856 045a 1CE0     		b	.L54
 857              	.LVL148:
 858              	.L55:
 859              	.LBB29:
 262:printer.c     ****            for(uint8 x = 5; x > 0; x --){
 263:printer.c     ****         		PRINTER_A_PutChar(charVolumeCopy[x]);
 860              		.loc 1 263 0 discriminator 3
 861 045c 634B     		ldr	r3, .L83+20
 862 045e 13F81400 		ldrb	r0, [r3, r4, lsl #1]	@ zero_extendqisi2
 863 0462 FFF7FEFF 		bl	PRINTER_A_PutChar
 864              	.LVL149:
 262:printer.c     ****            for(uint8 x = 5; x > 0; x --){
 865              		.loc 1 262 0 discriminator 3
 866 0466 013C     		subs	r4, r4, #1
 867              	.LVL150:
 868 0468 E4B2     		uxtb	r4, r4
 869              	.LVL151:
 870 046a 00E0     		b	.L53
 871              	.LVL152:
 872              	.L79:
 873              	.LBE29:
 874 046c 0524     		movs	r4, #5
 875              	.LVL153:
 876              	.L53:
 877              	.LBB30:
 262:printer.c     ****            for(uint8 x = 5; x > 0; x --){
 878              		.loc 1 262 0 is_stmt 0 discriminator 1
 879 046e 002C     		cmp	r4, #0
 880 0470 F4D1     		bne	.L55
 881 0472 12E0     		b	.L56
 882              	.LVL154:
 883              	.L58:
 884              	.LBE30:
 885              	.LBB31:
 264:printer.c     ****         	} 
 265:printer.c     ****         }else{
ARM GAS  C:\Users\Lenovo\AppData\Local\Temp\ccFjE1Y8.s 			page 22


 266:printer.c     ****     		for(uint8 x = 5; x > 0; x --){
 267:printer.c     ****     			if((6-x) == DecVol)
 886              		.loc 1 267 0 is_stmt 1
 887 0474 2546     		mov	r5, r4
 888 0476 C4F10603 		rsb	r3, r4, #6
 889 047a 5D4A     		ldr	r2, .L83+24
 890 047c 1278     		ldrb	r2, [r2]	@ zero_extendqisi2
 891 047e 9342     		cmp	r3, r2
 892 0480 02D1     		bne	.L57
 268:printer.c     ****     				PRINTER_A_PutChar('.');
 893              		.loc 1 268 0
 894 0482 2E20     		movs	r0, #46
 895 0484 FFF7FEFF 		bl	PRINTER_A_PutChar
 896              	.LVL155:
 897              	.L57:
 269:printer.c     ****     			PRINTER_A_PutChar(charVolume[x]);        
 898              		.loc 1 269 0 discriminator 2
 899 0488 5A4B     		ldr	r3, .L83+28
 900 048a 13F81500 		ldrb	r0, [r3, r5, lsl #1]	@ zero_extendqisi2
 901 048e FFF7FEFF 		bl	PRINTER_A_PutChar
 902              	.LVL156:
 266:printer.c     ****     			if((6-x) == DecVol)
 903              		.loc 1 266 0 discriminator 2
 904 0492 013C     		subs	r4, r4, #1
 905              	.LVL157:
 906 0494 E4B2     		uxtb	r4, r4
 907              	.LVL158:
 908              	.L54:
 266:printer.c     ****     			if((6-x) == DecVol)
 909              		.loc 1 266 0 is_stmt 0 discriminator 1
 910 0496 002C     		cmp	r4, #0
 911 0498 ECD1     		bne	.L58
 912              	.LVL159:
 913              	.L56:
 914              	.LBE31:
 270:printer.c     **** 		    }
 271:printer.c     ****         }
 272:printer.c     **** 		PRINTER_A_PutChar(' ');
 915              		.loc 1 272 0 is_stmt 1
 916 049a 2020     		movs	r0, #32
 917 049c FFF7FEFF 		bl	PRINTER_A_PutChar
 918              	.LVL160:
 273:printer.c     **** 		PRINTER_A_PutChar(VolSimbol[0]);
 919              		.loc 1 273 0
 920 04a0 4D4C     		ldr	r4, .L83
 921 04a2 94F8F400 		ldrb	r0, [r4, #244]	@ zero_extendqisi2
 922 04a6 FFF7FEFF 		bl	PRINTER_A_PutChar
 923              	.LVL161:
 274:printer.c     **** 		PRINTER_A_PutChar(LINE_FEED); 
 924              		.loc 1 274 0
 925 04aa 94F85000 		ldrb	r0, [r4, #80]	@ zero_extendqisi2
 926 04ae FFF7FEFF 		bl	PRINTER_A_PutChar
 927              	.LVL162:
 275:printer.c     **** //		for(uint8 x = 0; x < 13; x ++){
 276:printer.c     **** //			PRINTER_A_PutChar(msn_din[x]);
 277:printer.c     **** //		}     
 278:printer.c     **** //		PRINTER_A_PutChar(PRN_CURRENCY[0]);  
ARM GAS  C:\Users\Lenovo\AppData\Local\Temp\ccFjE1Y8.s 			page 23


 279:printer.c     **** //		PRINTER_A_PutChar(' ');
 280:printer.c     **** //		for(uint8 x = 0; x < 8; x ++){
 281:printer.c     **** //			PRINTER_A_PutChar(side.a.ProcessedmoneySale[x]);
 282:printer.c     **** //		}		
 283:printer.c     **** //		PRINTER_A_PutChar(LINE_FEED);
 284:printer.c     ****         side.a.Copy = 1;
 928              		.loc 1 284 0
 929 04b2 0122     		movs	r2, #1
 930 04b4 494B     		ldr	r3, .L83+4
 931 04b6 83F8AD20 		strb	r2, [r3, #173]
 932              	.L34:
 933 04ba 0024     		movs	r4, #0
 934 04bc 07E0     		b	.L59
 935              	.LVL163:
 936              	.L60:
 937              	.LBB32:
 285:printer.c     **** 	}	
 286:printer.c     **** 	
 287:printer.c     **** 	
 288:printer.c     **** 	/******FOOTER*****/
 289:printer.c     **** 	for(uint8 x = 0; x < 24; x ++){
 290:printer.c     **** 		PRINTER_A_PutChar(SEPARATOR[x]);
 938              		.loc 1 290 0 discriminator 3
 939 04be 464B     		ldr	r3, .L83
 940 04c0 2344     		add	r3, r3, r4
 941 04c2 93F86C00 		ldrb	r0, [r3, #108]	@ zero_extendqisi2
 942 04c6 FFF7FEFF 		bl	PRINTER_A_PutChar
 943              	.LVL164:
 289:printer.c     **** 		PRINTER_A_PutChar(SEPARATOR[x]);
 944              		.loc 1 289 0 discriminator 3
 945 04ca 0134     		adds	r4, r4, #1
 946              	.LVL165:
 947 04cc E4B2     		uxtb	r4, r4
 948              	.LVL166:
 949              	.L59:
 289:printer.c     **** 		PRINTER_A_PutChar(SEPARATOR[x]);
 950              		.loc 1 289 0 is_stmt 0 discriminator 1
 951 04ce 172C     		cmp	r4, #23
 952 04d0 F5D9     		bls	.L60
 953              	.LBE32:
 291:printer.c     **** 	}
 292:printer.c     ****     PRINTER_A_PutChar(LINE_FEED);    
 954              		.loc 1 292 0 is_stmt 1
 955 04d2 414B     		ldr	r3, .L83
 956 04d4 93F85000 		ldrb	r0, [r3, #80]	@ zero_extendqisi2
 957 04d8 FFF7FEFF 		bl	PRINTER_A_PutChar
 958              	.LVL167:
 959              	.LBB33:
 293:printer.c     **** 	for(uint8 x = 0; x < 24; x ++){
 960              		.loc 1 293 0
 961 04dc 0024     		movs	r4, #0
 962              	.LVL168:
 963 04de 07E0     		b	.L61
 964              	.LVL169:
 965              	.L62:
 294:printer.c     **** 		PRINTER_A_PutChar(msn_footer3[x]);
 966              		.loc 1 294 0 discriminator 3
ARM GAS  C:\Users\Lenovo\AppData\Local\Temp\ccFjE1Y8.s 			page 24


 967 04e0 3D4B     		ldr	r3, .L83
 968 04e2 2344     		add	r3, r3, r4
 969 04e4 93F8F800 		ldrb	r0, [r3, #248]	@ zero_extendqisi2
 970 04e8 FFF7FEFF 		bl	PRINTER_A_PutChar
 971              	.LVL170:
 293:printer.c     **** 	for(uint8 x = 0; x < 24; x ++){
 972              		.loc 1 293 0 discriminator 3
 973 04ec 0134     		adds	r4, r4, #1
 974              	.LVL171:
 975 04ee E4B2     		uxtb	r4, r4
 976              	.LVL172:
 977              	.L61:
 293:printer.c     **** 	for(uint8 x = 0; x < 24; x ++){
 978              		.loc 1 293 0 is_stmt 0 discriminator 1
 979 04f0 172C     		cmp	r4, #23
 980 04f2 F5D9     		bls	.L62
 981              	.LBE33:
 295:printer.c     **** 	}
 296:printer.c     ****     PRINTER_A_PutChar(LINE_FEED);
 982              		.loc 1 296 0 is_stmt 1
 983 04f4 384C     		ldr	r4, .L83
 984              	.LVL173:
 985 04f6 94F85000 		ldrb	r0, [r4, #80]	@ zero_extendqisi2
 986 04fa FFF7FEFF 		bl	PRINTER_A_PutChar
 987              	.LVL174:
 297:printer.c     ****     PRINTER_A_PutChar(LINE_FEED);
 988              		.loc 1 297 0
 989 04fe 94F85000 		ldrb	r0, [r4, #80]	@ zero_extendqisi2
 990 0502 FFF7FEFF 		bl	PRINTER_A_PutChar
 991              	.LVL175:
 992              	.LBB34:
 298:printer.c     **** 	for(uint8 x = 0; x < 24; x ++){
 993              		.loc 1 298 0
 994 0506 0024     		movs	r4, #0
 995 0508 07E0     		b	.L63
 996              	.LVL176:
 997              	.L64:
 299:printer.c     **** 		PRINTER_A_PutChar(msn_footer4[x]);
 998              		.loc 1 299 0 discriminator 3
 999 050a 334B     		ldr	r3, .L83
 1000 050c 2344     		add	r3, r3, r4
 1001 050e 93F81001 		ldrb	r0, [r3, #272]	@ zero_extendqisi2
 1002 0512 FFF7FEFF 		bl	PRINTER_A_PutChar
 1003              	.LVL177:
 298:printer.c     **** 	for(uint8 x = 0; x < 24; x ++){
 1004              		.loc 1 298 0 discriminator 3
 1005 0516 0134     		adds	r4, r4, #1
 1006              	.LVL178:
 1007 0518 E4B2     		uxtb	r4, r4
 1008              	.LVL179:
 1009              	.L63:
 298:printer.c     **** 	for(uint8 x = 0; x < 24; x ++){
 1010              		.loc 1 298 0 is_stmt 0 discriminator 1
 1011 051a 172C     		cmp	r4, #23
 1012 051c F5D9     		bls	.L64
 1013              	.LBE34:
 300:printer.c     **** 	}
ARM GAS  C:\Users\Lenovo\AppData\Local\Temp\ccFjE1Y8.s 			page 25


 301:printer.c     **** 	PRINTER_A_PutChar(LINE_FEED);    
 1014              		.loc 1 301 0 is_stmt 1
 1015 051e 2E4B     		ldr	r3, .L83
 1016 0520 93F85000 		ldrb	r0, [r3, #80]	@ zero_extendqisi2
 1017 0524 FFF7FEFF 		bl	PRINTER_A_PutChar
 1018              	.LVL180:
 1019              	.LBB35:
 302:printer.c     ****     for(uint8 x = 0; x < 24; x ++){
 1020              		.loc 1 302 0
 1021 0528 0024     		movs	r4, #0
 1022              	.LVL181:
 1023 052a 07E0     		b	.L65
 1024              	.LVL182:
 1025              	.L66:
 303:printer.c     **** 		PRINTER_A_PutChar(SEPARATOR[x]);
 1026              		.loc 1 303 0 discriminator 3
 1027 052c 2A4B     		ldr	r3, .L83
 1028 052e 2344     		add	r3, r3, r4
 1029 0530 93F86C00 		ldrb	r0, [r3, #108]	@ zero_extendqisi2
 1030 0534 FFF7FEFF 		bl	PRINTER_A_PutChar
 1031              	.LVL183:
 302:printer.c     ****     for(uint8 x = 0; x < 24; x ++){
 1032              		.loc 1 302 0 discriminator 3
 1033 0538 0134     		adds	r4, r4, #1
 1034              	.LVL184:
 1035 053a E4B2     		uxtb	r4, r4
 1036              	.LVL185:
 1037              	.L65:
 302:printer.c     ****     for(uint8 x = 0; x < 24; x ++){
 1038              		.loc 1 302 0 is_stmt 0 discriminator 1
 1039 053c 172C     		cmp	r4, #23
 1040 053e F5D9     		bls	.L66
 1041              	.LBE35:
 304:printer.c     **** 	}
 305:printer.c     ****     PRINTER_A_PutChar(LINE_FEED);
 1042              		.loc 1 305 0 is_stmt 1
 1043 0540 254B     		ldr	r3, .L83
 1044 0542 93F85000 		ldrb	r0, [r3, #80]	@ zero_extendqisi2
 1045 0546 FFF7FEFF 		bl	PRINTER_A_PutChar
 1046              	.LVL186:
 1047              	.LBB36:
 306:printer.c     **** 	for(uint8 x = 0; x < 24; x ++){
 1048              		.loc 1 306 0
 1049 054a 0024     		movs	r4, #0
 1050              	.LVL187:
 1051 054c 07E0     		b	.L67
 1052              	.LVL188:
 1053              	.L68:
 307:printer.c     **** 		PRINTER_A_PutChar(msn_footer[x]);
 1054              		.loc 1 307 0 discriminator 3
 1055 054e 224B     		ldr	r3, .L83
 1056 0550 2344     		add	r3, r3, r4
 1057 0552 93F82801 		ldrb	r0, [r3, #296]	@ zero_extendqisi2
 1058 0556 FFF7FEFF 		bl	PRINTER_A_PutChar
 1059              	.LVL189:
 306:printer.c     **** 	for(uint8 x = 0; x < 24; x ++){
 1060              		.loc 1 306 0 discriminator 3
ARM GAS  C:\Users\Lenovo\AppData\Local\Temp\ccFjE1Y8.s 			page 26


 1061 055a 0134     		adds	r4, r4, #1
 1062              	.LVL190:
 1063 055c E4B2     		uxtb	r4, r4
 1064              	.LVL191:
 1065              	.L67:
 306:printer.c     **** 	for(uint8 x = 0; x < 24; x ++){
 1066              		.loc 1 306 0 is_stmt 0 discriminator 1
 1067 055e 172C     		cmp	r4, #23
 1068 0560 F5D9     		bls	.L68
 1069              	.LBE36:
 308:printer.c     **** 	}
 309:printer.c     **** 	PRINTER_A_PutChar(LINE_FEED);
 1070              		.loc 1 309 0 is_stmt 1
 1071 0562 1D4B     		ldr	r3, .L83
 1072 0564 93F85000 		ldrb	r0, [r3, #80]	@ zero_extendqisi2
 1073 0568 FFF7FEFF 		bl	PRINTER_A_PutChar
 1074              	.LVL192:
 1075              	.LBB37:
 310:printer.c     **** 	for(uint8 x = 0; x < 24; x ++){
 1076              		.loc 1 310 0
 1077 056c 0024     		movs	r4, #0
 1078              	.LVL193:
 1079 056e 07E0     		b	.L69
 1080              	.LVL194:
 1081              	.L70:
 311:printer.c     **** 		PRINTER_A_PutChar(msn_footer2[x]);
 1082              		.loc 1 311 0 discriminator 3
 1083 0570 194B     		ldr	r3, .L83
 1084 0572 2344     		add	r3, r3, r4
 1085 0574 93F84001 		ldrb	r0, [r3, #320]	@ zero_extendqisi2
 1086 0578 FFF7FEFF 		bl	PRINTER_A_PutChar
 1087              	.LVL195:
 310:printer.c     **** 	for(uint8 x = 0; x < 24; x ++){
 1088              		.loc 1 310 0 discriminator 3
 1089 057c 0134     		adds	r4, r4, #1
 1090              	.LVL196:
 1091 057e E4B2     		uxtb	r4, r4
 1092              	.LVL197:
 1093              	.L69:
 310:printer.c     **** 	for(uint8 x = 0; x < 24; x ++){
 1094              		.loc 1 310 0 is_stmt 0 discriminator 1
 1095 0580 172C     		cmp	r4, #23
 1096 0582 F5D9     		bls	.L70
 1097              	.LBE37:
 312:printer.c     **** 	}    
 313:printer.c     ****     PRINTER_A_PutChar(LINE_FEED);
 1098              		.loc 1 313 0 is_stmt 1
 1099 0584 144C     		ldr	r4, .L83
 1100              	.LVL198:
 1101 0586 94F85000 		ldrb	r0, [r4, #80]	@ zero_extendqisi2
 1102 058a FFF7FEFF 		bl	PRINTER_A_PutChar
 1103              	.LVL199:
 314:printer.c     ****     PRINTER_A_PutChar(LINE_FEED);
 1104              		.loc 1 314 0
 1105 058e 94F85000 		ldrb	r0, [r4, #80]	@ zero_extendqisi2
 1106 0592 FFF7FEFF 		bl	PRINTER_A_PutChar
 1107              	.LVL200:
ARM GAS  C:\Users\Lenovo\AppData\Local\Temp\ccFjE1Y8.s 			page 27


 315:printer.c     ****     PRINTER_A_PutChar(LINE_FEED);
 1108              		.loc 1 315 0
 1109 0596 94F85000 		ldrb	r0, [r4, #80]	@ zero_extendqisi2
 1110 059a FFF7FEFF 		bl	PRINTER_A_PutChar
 1111              	.LVL201:
 316:printer.c     ****     PRINTER_A_PutChar(LINE_FEED);
 1112              		.loc 1 316 0
 1113 059e 94F85000 		ldrb	r0, [r4, #80]	@ zero_extendqisi2
 1114 05a2 FFF7FEFF 		bl	PRINTER_A_PutChar
 1115              	.LVL202:
 317:printer.c     ****     PRINTER_A_PutChar(LINE_FEED);
 1116              		.loc 1 317 0
 1117 05a6 94F85000 		ldrb	r0, [r4, #80]	@ zero_extendqisi2
 1118 05aa FFF7FEFF 		bl	PRINTER_A_PutChar
 1119              	.LVL203:
 1120              	.LBB38:
 318:printer.c     ****     for(uint8 x = 0; x < 6; x ++){
 1121              		.loc 1 318 0
 1122 05ae 0023     		movs	r3, #0
 1123 05b0 0BE0     		b	.L71
 1124              	.LVL204:
 1125              	.L72:
 319:printer.c     ****         sale_number_copy[x] = sale_number[x];
 1126              		.loc 1 319 0 discriminator 3
 1127 05b2 0C4A     		ldr	r2, .L83+12
 1128 05b4 D15C     		ldrb	r1, [r2, r3]	@ zero_extendqisi2
 1129 05b6 0A4A     		ldr	r2, .L83+8
 1130 05b8 D154     		strb	r1, [r2, r3]
 320:printer.c     ****         charVolumeCopy [x] = charVolume [x];
 1131              		.loc 1 320 0 discriminator 3
 1132 05ba 0E4A     		ldr	r2, .L83+28
 1133 05bc 32F81310 		ldrh	r1, [r2, r3, lsl #1]
 1134 05c0 0A4A     		ldr	r2, .L83+20
 1135 05c2 22F81310 		strh	r1, [r2, r3, lsl #1]	@ movhi
 318:printer.c     ****     for(uint8 x = 0; x < 6; x ++){
 1136              		.loc 1 318 0 discriminator 3
 1137 05c6 0133     		adds	r3, r3, #1
 1138              	.LVL205:
 1139 05c8 DBB2     		uxtb	r3, r3
 1140              	.LVL206:
 1141              	.L71:
 318:printer.c     ****     for(uint8 x = 0; x < 6; x ++){
 1142              		.loc 1 318 0 is_stmt 0 discriminator 1
 1143 05ca 052B     		cmp	r3, #5
 1144 05cc F1D9     		bls	.L72
 1145              	.LBE38:
 321:printer.c     ****     }
 322:printer.c     ****     PrintVol = 0;
 1146              		.loc 1 322 0 is_stmt 1
 1147 05ce 0022     		movs	r2, #0
 1148 05d0 094B     		ldr	r3, .L83+32
 1149              	.LVL207:
 1150 05d2 1A70     		strb	r2, [r3]
 1151 05d4 70BD     		pop	{r4, r5, r6, pc}
 1152              	.LVL208:
 1153              	.L84:
 1154 05d6 00BF     		.align	2
ARM GAS  C:\Users\Lenovo\AppData\Local\Temp\ccFjE1Y8.s 			page 28


 1155              	.L83:
 1156 05d8 00000000 		.word	.LANCHOR0
 1157 05dc 00000000 		.word	side
 1158 05e0 00000000 		.word	sale_number_copy
 1159 05e4 00000000 		.word	sale_number
 1160 05e8 00000000 		.word	int_salenumber
 1161 05ec 00000000 		.word	charVolumeCopy
 1162 05f0 00000000 		.word	DecVol
 1163 05f4 00000000 		.word	charVolume
 1164 05f8 00000000 		.word	PrintVol
 1165              		.cfi_endproc
 1166              	.LFE64:
 1167              		.size	PrintReceipt, .-PrintReceipt
 1168              		.global	ASK_TIME
 1169              		.global	SEPARATOR
 1170              		.global	msn_dif
 1171              		.global	msn_lecaan
 1172              		.global	msn_lecact
 1173              		.global	PRN_CURRENCY
 1174              		.global	PRN_ID
 1175              		.global	PRN_SIGNATURE
 1176              		.global	PRN_PRESET
 1177              		.global	PRN_MONEYMONTH
 1178              		.global	PRN_MONEYWEEK
 1179              		.global	PRN_MONEYDAY
 1180              		.global	PRN_VOLUMEMONTH
 1181              		.global	PRN_VOLUMEWEEK
 1182              		.global	PRN_VOLUMEDAY
 1183              		.global	PRN_VISITSMONTH
 1184              		.global	PRN_VISITSWEEK
 1185              		.global	PRN_VISITSDAY
 1186              		.global	PRN_ACCOUNTTYPE
 1187              		.global	PRN_SERIAL
 1188              		.global	PRN_ACCOUNT
 1189              		.global	PRN_COMPANY
 1190              		.global	PRN_BALANCE
 1191              		.global	msn_numero
 1192              		.global	msn_venta
 1193              		.global	msn_cierre
 1194              		.global	msn_din
 1195              		.global	msn_voltot
 1196              		.global	msn_vol
 1197              		.global	msn_ppu
 1198              		.global	msn_product
 1199              		.global	msn_pos
 1200              		.global	PRN_TRANSTYPE
 1201              		.global	PRN_MILLEAGE
 1202              		.global	msn_placa
 1203              		.global	msn_hora
 1204              		.global	msn_fecha
 1205              		.global	msn_gasoline
 1206              		.global	msn_diesel
 1207              		.global	msn_copy
 1208              		.global	msn_footer4
 1209              		.global	msn_footer3
 1210              		.global	msn_footer2
 1211              		.global	msn_footer
ARM GAS  C:\Users\Lenovo\AppData\Local\Temp\ccFjE1Y8.s 			page 29


 1212              		.global	msn_EDS6
 1213              		.global	msn_EDS5
 1214              		.global	msn_EDS3
 1215              		.global	msn_EDS
 1216              		.global	VolSimbol
 1217              		.global	LINE_FEED
 1218              		.comm	side,696,4
 1219              		.comm	touch1,20,4
 1220              		.comm	PrintVol,1,1
 1221              		.comm	int_shiftnumber,1,1
 1222              		.comm	shift_number,6,4
 1223              		.comm	DecVol,1,1
 1224              		.comm	int_salenumber,1,1
 1225              		.comm	charVolumeCopy,12,4
 1226              		.comm	sale_number_copy,6,4
 1227              		.comm	sale_number,6,4
 1228              		.comm	charVolume,12,4
 1229              		.comm	charDivider,9,4
 1230              		.comm	divider,1,1
 1231              		.comm	filteredCount,4,4
 1232              		.data
 1233              		.align	2
 1234              		.set	.LANCHOR0,. + 0
 1235              		.type	ASK_TIME, %object
 1236              		.size	ASK_TIME, 6
 1237              	ASK_TIME:
 1238 0000 5A       		.byte	90
 1239 0001 A5       		.byte	-91
 1240 0002 03       		.byte	3
 1241 0003 81       		.byte	-127
 1242 0004 20       		.byte	32
 1243 0005 07       		.byte	7
 1244 0006 0000     		.space	2
 1245              		.type	msn_EDS, %object
 1246              		.size	msn_EDS, 24
 1247              	msn_EDS:
 1248 0008 2020204C 		.ascii	"   LADRILLERA SANTAFE   "
 1248      41445249 
 1248      4C4C4552 
 1248      41205341 
 1248      4E544146 
 1249              		.type	msn_EDS3, %object
 1250              		.size	msn_EDS3, 24
 1251              	msn_EDS3:
 1252 0020 20202020 		.ascii	"     Nit 860.000.762    "
 1252      204E6974 
 1252      20383630 
 1252      2E303030 
 1252      2E373632 
 1253              		.type	msn_EDS5, %object
 1254              		.size	msn_EDS5, 24
 1255              	msn_EDS5:
 1256 0038 20202020 		.ascii	"    AV CRA 9 #74 - 08   "
 1256      41562043 
 1256      52412039 
 1256      20233734 
 1256      202D2030 
ARM GAS  C:\Users\Lenovo\AppData\Local\Temp\ccFjE1Y8.s 			page 30


 1257              		.type	LINE_FEED, %object
 1258              		.size	LINE_FEED, 1
 1259              	LINE_FEED:
 1260 0050 0A       		.byte	10
 1261 0051 000000   		.space	3
 1262              		.type	msn_EDS6, %object
 1263              		.size	msn_EDS6, 24
 1264              	msn_EDS6:
 1265 0054 20202020 		.ascii	"       BOGOTA D.C.      "
 1265      20202042 
 1265      4F474F54 
 1265      4120442E 
 1265      432E2020 
 1266              		.type	SEPARATOR, %object
 1267              		.size	SEPARATOR, 32
 1268              	SEPARATOR:
 1269 006c 2A2A2A2A 		.ascii	"********************************"
 1269      2A2A2A2A 
 1269      2A2A2A2A 
 1269      2A2A2A2A 
 1269      2A2A2A2A 
 1270              		.type	msn_fecha, %object
 1271              		.size	msn_fecha, 13
 1272              	msn_fecha:
 1273 008c 46656368 		.ascii	"Fecha      : "
 1273      61202020 
 1273      2020203A 
 1273      20
 1274 0099 000000   		.space	3
 1275              		.type	msn_hora, %object
 1276              		.size	msn_hora, 13
 1277              	msn_hora:
 1278 009c 486F7261 		.ascii	"Hora       : "
 1278      20202020 
 1278      2020203A 
 1278      20
 1279 00a9 000000   		.space	3
 1280              		.type	msn_copy, %object
 1281              		.size	msn_copy, 24
 1282              	msn_copy:
 1283 00ac 20202020 		.ascii	"         COPIA          "
 1283      20202020 
 1283      20434F50 
 1283      49412020 
 1283      20202020 
 1284              		.type	msn_venta, %object
 1285              		.size	msn_venta, 13
 1286              	msn_venta:
 1287 00c4 56656E74 		.ascii	"Venta No   : "
 1287      61204E6F 
 1287      2020203A 
 1287      20
 1288 00d1 000000   		.space	3
 1289              		.type	msn_placa, %object
 1290              		.size	msn_placa, 13
 1291              	msn_placa:
 1292 00d4 506C6163 		.ascii	"Placa      : "
ARM GAS  C:\Users\Lenovo\AppData\Local\Temp\ccFjE1Y8.s 			page 31


 1292      61202020 
 1292      2020203A 
 1292      20
 1293 00e1 000000   		.space	3
 1294              		.type	msn_vol, %object
 1295              		.size	msn_vol, 13
 1296              	msn_vol:
 1297 00e4 566F6C75 		.ascii	"Volumen    : "
 1297      6D656E20 
 1297      2020203A 
 1297      20
 1298 00f1 000000   		.space	3
 1299              		.type	VolSimbol, %object
 1300              		.size	VolSimbol, 1
 1301              	VolSimbol:
 1302 00f4 47       		.ascii	"G"
 1303 00f5 000000   		.space	3
 1304              		.type	msn_footer3, %object
 1305              		.size	msn_footer3, 24
 1306              	msn_footer3:
 1307 00f8 4669726D 		.ascii	"Firma:                  "
 1307      613A2020 
 1307      20202020 
 1307      20202020 
 1307      20202020 
 1308              		.type	msn_footer4, %object
 1309              		.size	msn_footer4, 24
 1310              	msn_footer4:
 1311 0110 5F5F5F5F 		.ascii	"________________________"
 1311      5F5F5F5F 
 1311      5F5F5F5F 
 1311      5F5F5F5F 
 1311      5F5F5F5F 
 1312              		.type	msn_footer, %object
 1313              		.size	msn_footer, 24
 1314              	msn_footer:
 1315 0128 20204752 		.ascii	"  GRACIAS POR SU COMPRA "
 1315      41434941 
 1315      5320504F 
 1315      52205355 
 1315      20434F4D 
 1316              		.type	msn_footer2, %object
 1317              		.size	msn_footer2, 24
 1318              	msn_footer2:
 1319 0140 20202020 		.ascii	"      VUELVA PRONTO     "
 1319      20205655 
 1319      454C5641 
 1319      2050524F 
 1319      4E544F20 
 1320              		.type	msn_dif, %object
 1321              		.size	msn_dif, 18
 1322              	msn_dif:
 1323 0158 566F6C2E 		.ascii	"Vol. dispensado:  "
 1323      20646973 
 1323      70656E73 
 1323      61646F3A 
 1323      2020
ARM GAS  C:\Users\Lenovo\AppData\Local\Temp\ccFjE1Y8.s 			page 32


 1324 016a 0000     		.space	2
 1325              		.type	msn_lecaan, %object
 1326              		.size	msn_lecaan, 16
 1327              	msn_lecaan:
 1328 016c 566F6C2E 		.ascii	"Vol. anterior:  "
 1328      20616E74 
 1328      6572696F 
 1328      723A2020 
 1329              		.type	msn_lecact, %object
 1330              		.size	msn_lecact, 16
 1331              	msn_lecact:
 1332 017c 566F6C75 		.ascii	"Volumen actual: "
 1332      6D656E20 
 1332      61637475 
 1332      616C3A20 
 1333              		.type	PRN_CURRENCY, %object
 1334              		.size	PRN_CURRENCY, 1
 1335              	PRN_CURRENCY:
 1336 018c 24       		.ascii	"$"
 1337 018d 000000   		.space	3
 1338              		.type	PRN_ID, %object
 1339              		.size	PRN_ID, 13
 1340              	PRN_ID:
 1341 0190 43656475 		.ascii	"Cedula     : "
 1341      6C612020 
 1341      2020203A 
 1341      20
 1342 019d 000000   		.space	3
 1343              		.type	PRN_SIGNATURE, %object
 1344              		.size	PRN_SIGNATURE, 13
 1345              	PRN_SIGNATURE:
 1346 01a0 4669726D 		.ascii	"Firma      : "
 1346      61202020 
 1346      2020203A 
 1346      20
 1347 01ad 000000   		.space	3
 1348              		.type	PRN_PRESET, %object
 1349              		.size	PRN_PRESET, 13
 1350              	PRN_PRESET:
 1351 01b0 56616C6F 		.ascii	"Valor Prog.: "
 1351      72205072 
 1351      6F672E3A 
 1351      20
 1352 01bd 000000   		.space	3
 1353              		.type	PRN_MONEYMONTH, %object
 1354              		.size	PRN_MONEYMONTH, 13
 1355              	PRN_MONEYMONTH:
 1356 01c0 44696E65 		.ascii	"Dinero Mes : "
 1356      726F204D 
 1356      6573203A 
 1356      20
 1357 01cd 000000   		.space	3
 1358              		.type	PRN_MONEYWEEK, %object
 1359              		.size	PRN_MONEYWEEK, 13
 1360              	PRN_MONEYWEEK:
 1361 01d0 44696E65 		.ascii	"Dinero Sem : "
 1361      726F2053 
ARM GAS  C:\Users\Lenovo\AppData\Local\Temp\ccFjE1Y8.s 			page 33


 1361      656D203A 
 1361      20
 1362 01dd 000000   		.space	3
 1363              		.type	PRN_MONEYDAY, %object
 1364              		.size	PRN_MONEYDAY, 13
 1365              	PRN_MONEYDAY:
 1366 01e0 44696E65 		.ascii	"Dinero Dia : "
 1366      726F2044 
 1366      6961203A 
 1366      20
 1367 01ed 000000   		.space	3
 1368              		.type	PRN_VOLUMEMONTH, %object
 1369              		.size	PRN_VOLUMEMONTH, 13
 1370              	PRN_VOLUMEMONTH:
 1371 01f0 566F6C75 		.ascii	"Volumen Mes: "
 1371      6D656E20 
 1371      4D65733A 
 1371      20
 1372 01fd 000000   		.space	3
 1373              		.type	PRN_VOLUMEWEEK, %object
 1374              		.size	PRN_VOLUMEWEEK, 13
 1375              	PRN_VOLUMEWEEK:
 1376 0200 566F6C75 		.ascii	"Volumen Sem: "
 1376      6D656E20 
 1376      53656D3A 
 1376      20
 1377 020d 000000   		.space	3
 1378              		.type	PRN_VOLUMEDAY, %object
 1379              		.size	PRN_VOLUMEDAY, 13
 1380              	PRN_VOLUMEDAY:
 1381 0210 566F6C75 		.ascii	"Volumen Dia: "
 1381      6D656E20 
 1381      4469613A 
 1381      20
 1382 021d 000000   		.space	3
 1383              		.type	PRN_VISITSMONTH, %object
 1384              		.size	PRN_VISITSMONTH, 13
 1385              	PRN_VISITSMONTH:
 1386 0220 56697369 		.ascii	"Visitas Mes: "
 1386      74617320 
 1386      4D65733A 
 1386      20
 1387 022d 000000   		.space	3
 1388              		.type	PRN_VISITSWEEK, %object
 1389              		.size	PRN_VISITSWEEK, 13
 1390              	PRN_VISITSWEEK:
 1391 0230 56697369 		.ascii	"Visitas Sem: "
 1391      74617320 
 1391      53656D3A 
 1391      20
 1392 023d 000000   		.space	3
 1393              		.type	PRN_VISITSDAY, %object
 1394              		.size	PRN_VISITSDAY, 13
 1395              	PRN_VISITSDAY:
 1396 0240 56697369 		.ascii	"Visitas Dia: "
 1396      74617320 
 1396      4469613A 
ARM GAS  C:\Users\Lenovo\AppData\Local\Temp\ccFjE1Y8.s 			page 34


 1396      20
 1397 024d 000000   		.space	3
 1398              		.type	PRN_ACCOUNTTYPE, %object
 1399              		.size	PRN_ACCOUNTTYPE, 13
 1400              	PRN_ACCOUNTTYPE:
 1401 0250 5469706F 		.ascii	"Tipo Cuenta: "
 1401      20437565 
 1401      6E74613A 
 1401      20
 1402 025d 000000   		.space	3
 1403              		.type	PRN_SERIAL, %object
 1404              		.size	PRN_SERIAL, 13
 1405              	PRN_SERIAL:
 1406 0260 53657269 		.ascii	"Serial     : "
 1406      616C2020 
 1406      2020203A 
 1406      20
 1407 026d 000000   		.space	3
 1408              		.type	PRN_ACCOUNT, %object
 1409              		.size	PRN_ACCOUNT, 13
 1410              	PRN_ACCOUNT:
 1411 0270 4375656E 		.ascii	"Cuenta     : "
 1411      74612020 
 1411      2020203A 
 1411      20
 1412 027d 000000   		.space	3
 1413              		.type	PRN_COMPANY, %object
 1414              		.size	PRN_COMPANY, 13
 1415              	PRN_COMPANY:
 1416 0280 456D7072 		.ascii	"Empresa    : "
 1416      65736120 
 1416      2020203A 
 1416      20
 1417 028d 000000   		.space	3
 1418              		.type	PRN_BALANCE, %object
 1419              		.size	PRN_BALANCE, 13
 1420              	PRN_BALANCE:
 1421 0290 53616C64 		.ascii	"Saldo      : "
 1421      6F202020 
 1421      2020203A 
 1421      20
 1422 029d 000000   		.space	3
 1423              		.type	msn_numero, %object
 1424              		.size	msn_numero, 13
 1425              	msn_numero:
 1426 02a0 436F6E73 		.ascii	"Consecutivo: "
 1426      65637574 
 1426      69766F3A 
 1426      20
 1427 02ad 000000   		.space	3
 1428              		.type	msn_cierre, %object
 1429              		.size	msn_cierre, 13
 1430              	msn_cierre:
 1431 02b0 43696572 		.ascii	"Cierre No  : "
 1431      7265204E 
 1431      6F20203A 
 1431      20
ARM GAS  C:\Users\Lenovo\AppData\Local\Temp\ccFjE1Y8.s 			page 35


 1432 02bd 000000   		.space	3
 1433              		.type	msn_din, %object
 1434              		.size	msn_din, 13
 1435              	msn_din:
 1436 02c0 496D706F 		.ascii	"Importe    : "
 1436      72746520 
 1436      2020203A 
 1436      20
 1437 02cd 000000   		.space	3
 1438              		.type	msn_voltot, %object
 1439              		.size	msn_voltot, 13
 1440              	msn_voltot:
 1441 02d0 546F742E 		.ascii	"Tot.Vol    : "
 1441      566F6C20 
 1441      2020203A 
 1441      20
 1442 02dd 000000   		.space	3
 1443              		.type	msn_ppu, %object
 1444              		.size	msn_ppu, 13
 1445              	msn_ppu:
 1446 02e0 50707520 		.ascii	"Ppu        : "
 1446      20202020 
 1446      2020203A 
 1446      20
 1447 02ed 000000   		.space	3
 1448              		.type	msn_product, %object
 1449              		.size	msn_product, 13
 1450              	msn_product:
 1451 02f0 50726F64 		.ascii	"Producto   : "
 1451      7563746F 
 1451      2020203A 
 1451      20
 1452 02fd 000000   		.space	3
 1453              		.type	msn_pos, %object
 1454              		.size	msn_pos, 13
 1455              	msn_pos:
 1456 0300 506F7369 		.ascii	"Posicion   : "
 1456      63696F6E 
 1456      2020203A 
 1456      20
 1457 030d 000000   		.space	3
 1458              		.type	PRN_TRANSTYPE, %object
 1459              		.size	PRN_TRANSTYPE, 13
 1460              	PRN_TRANSTYPE:
 1461 0310 5469706F 		.ascii	"Tipo       : "
 1461      20202020 
 1461      2020203A 
 1461      20
 1462 031d 000000   		.space	3
 1463              		.type	PRN_MILLEAGE, %object
 1464              		.size	PRN_MILLEAGE, 13
 1465              	PRN_MILLEAGE:
 1466 0320 4B696C6F 		.ascii	"Kilometraje: "
 1466      6D657472 
 1466      616A653A 
 1466      20
 1467 032d 000000   		.space	3
ARM GAS  C:\Users\Lenovo\AppData\Local\Temp\ccFjE1Y8.s 			page 36


 1468              		.type	msn_gasoline, %object
 1469              		.size	msn_gasoline, 9
 1470              	msn_gasoline:
 1471 0330 436F7272 		.ascii	"Corriente"
 1471      69656E74 
 1471      65
 1472 0339 000000   		.space	3
 1473              		.type	msn_diesel, %object
 1474              		.size	msn_diesel, 9
 1475              	msn_diesel:
 1476 033c 44696573 		.ascii	"Diesel   "
 1476      656C2020 
 1476      20
 1477              		.text
 1478              	.Letext0:
 1479              		.file 2 "c:\\program files (x86)\\cypress\\psoc creator\\4.2\\psoc creator\\import\\gnu\\arm\\5.4.
 1480              		.file 3 "c:\\program files (x86)\\cypress\\psoc creator\\4.2\\psoc creator\\import\\gnu\\arm\\5.4.
 1481              		.file 4 "Generated_Source\\PSoC5/cytypes.h"
 1482              		.file 5 "./GVar.h"
 1483              		.file 6 "Generated_Source\\PSoC5/core_cm3.h"
 1484              		.file 7 "Generated_Source\\PSoC5/EEPROM_1.h"
 1485              		.file 8 "Generated_Source\\PSoC5/screen.h"
 1486              		.file 9 "Generated_Source\\PSoC5/PRINTER_A.h"
 1487              		.file 10 "Generated_Source\\PSoC5/CyLib.h"